

Microchip MPLAB XC8 Assembler V2.41 build 20230208172133 
                                                                                               Sat Aug 05 20:08:57 2023

Microchip MPLAB XC8 C Compiler v2.41 (Free license) build 20230208172133 Og1 
     1                           	processor	18F4620
     2                           	fnconf	rparam,??,?,0
     3                           	pagewidth 120
     4                           	opt	flic
     5                           	psect	idataCOMRAM,global,class=CODE,delta=1,noexec
     6                           	psect	smallconst,global,reloc=2,class=SMALLCONST,delta=1,noexec
     7                           	psect	cinit,global,reloc=2,class=CODE,delta=1
     8                           	psect	bssCOMRAM,global,class=COMRAM,space=1,delta=1,lowdata,noexec
     9                           	psect	dataCOMRAM,global,class=COMRAM,space=1,delta=1,lowdata,noexec
    10                           	psect	cstackCOMRAM,global,class=COMRAM,space=1,delta=1,lowdata,noexec
    11                           	psect	text0,global,reloc=2,class=CODE,delta=1
    12                           	psect	text1,global,reloc=2,class=CODE,delta=1
    13                           	psect	text2,global,reloc=2,class=CODE,delta=1
    14                           	psect	text3,global,reloc=2,class=CODE,delta=1
    15                           	psect	text4,global,reloc=2,class=CODE,delta=1
    16                           	psect	text5,global,reloc=2,class=CODE,delta=1
    17                           	psect	text6,global,reloc=2,class=CODE,delta=1
    18                           	psect	text7,global,reloc=2,class=CODE,delta=1
    19                           	psect	text8,global,reloc=2,class=CODE,delta=1
    20                           	psect	text9,global,reloc=2,class=CODE,delta=1
    21                           	psect	text10,global,reloc=2,class=CODE,delta=1
    22                           	psect	text11,global,reloc=2,class=CODE,delta=1
    23                           	psect	text12,global,reloc=2,class=CODE,delta=1
    24                           	psect	text13,global,reloc=2,class=CODE,delta=1
    25                           	psect	text14,global,reloc=2,class=CODE,delta=1
    26                           	psect	text15,global,reloc=2,class=CODE,delta=1
    27                           	psect	text16,global,reloc=2,class=CODE,delta=1
    28                           	psect	text17,global,reloc=2,class=CODE,delta=1
    29                           	psect	text18,global,reloc=2,class=CODE,delta=1
    30                           	psect	text19,global,reloc=2,class=CODE,delta=1
    31                           	psect	text20,global,reloc=2,class=CODE,delta=1
    32                           	psect	text21,global,reloc=2,class=CODE,delta=1
    33                           	psect	text22,global,reloc=2,class=CODE,delta=1
    34                           	psect	text23,global,reloc=2,class=CODE,delta=1,group=1
    35                           	psect	intsave_regs,global,class=BIGRAM,space=1,delta=1,noexec
    36                           	psect	rparam,global,class=COMRAM,space=1,delta=1,noexec
    37                           	psect	config,global,abs,ovrld,class=CONFIG,space=4,delta=1,noexec
    38   000000                     
    39                           ; Generated 23/03/2023 GMT
    40                           ; 
    41                           ; Copyright © 2023, Microchip Technology Inc. and its subsidiaries ("Microchip")
    42                           ; All rights reserved.
    43                           ; 
    44                           ; This software is developed by Microchip Technology Inc. and its subsidiaries ("Microch
      +                          ip").
    45                           ; 
    46                           ; Redistribution and use in source and binary forms, with or without modification, are
    47                           ; permitted provided that the following conditions are met:
    48                           ; 
    49                           ;     1. Redistributions of source code must retain the above copyright notice, this lis
      +                          t of
    50                           ;        conditions and the following disclaimer.
    51                           ; 
    52                           ;     2. Redistributions in binary form must reproduce the above copyright notice, this 
      +                          list
    53                           ;        of conditions and the following disclaimer in the documentation and/or other
    54                           ;        materials provided with the distribution. Publication is not required when
    55                           ;        this file is used in an embedded application.
    56                           ; 
    57                           ;     3. Microchip's name may not be used to endorse or promote products derived from th
      +                          is
    58                           ;        software without specific prior written permission.
    59                           ; 
    60                           ; THIS SOFTWARE IS PROVIDED BY MICROCHIP "AS IS" AND ANY EXPRESS OR IMPLIED WARRANTIES,
    61                           ; INCLUDING, BUT NOT LIMITED TO, THE IMPLIED WARRANTIES OF MERCHANTABILITY AND FITNESS F
      +                          OR
    62                           ; PURPOSE ARE DISCLAIMED.  IN NO EVENT SHALL MICROCHIP BE LIABLE FOR ANY DIRECT, INDIREC
      +                          T,
    63                           ; INCIDENTAL, SPECIAL, EXEMPLARY, OR CONSEQUENTIAL DAMAGES (INCLUDING BUT NOT LIMITED TO
    64                           ; PROCUREMENT OF SUBSTITUTE GOODS OR SERVICES; LOSS OF USE, DATA OR PROFITS; OR BUSINESS
    65                           ; INTERRUPTION) HOWSOEVER CAUSED AND ON ANY THEORY OF LIABILITY, WHETHER IN CONTRACT, ST
      +                          RICT
    66                           ; LIABILITY, OR TORT (INCLUDING NEGLIGENCE OR OTHERWISE) ARISING IN ANY WAY OUT OF THE U
      +                          SE OF
    67                           ; THIS SOFTWARE, EVEN IF ADVISED OF THE POSSIBILITY OF SUCH DAMAGE.
    68                           ; 
    69                           ; 
    70                           ; Code-generator required, PIC18F4620 Definitions
    71                           ; 
    72                           ; SFR Addresses
    73   000000                     
    74                           	psect	idataCOMRAM
    75   001F0E                     __pidataCOMRAM:
    76                           	callstack 0
    77                           
    78                           ;initializer for _port_register
    79   001F0E  80                 	db	128
    80   001F0F  0F                 	db	15
    81   001F10  81                 	db	129
    82   001F11  0F                 	db	15
    83   001F12  82                 	db	130
    84   001F13  0F                 	db	15
    85   001F14  83                 	db	131
    86   001F15  0F                 	db	15
    87   001F16  84                 	db	132
    88   001F17  0F                 	db	15
    89                           
    90                           ;initializer for _lat_register
    91   001F18  89                 	db	137
    92   001F19  0F                 	db	15
    93   001F1A  8A                 	db	138
    94   001F1B  0F                 	db	15
    95   001F1C  8B                 	db	139
    96   001F1D  0F                 	db	15
    97   001F1E  8C                 	db	140
    98   001F1F  0F                 	db	15
    99   001F20  8D                 	db	141
   100   001F21  0F                 	db	15
   101                           
   102                           ;initializer for _tris_register
   103   001F22  92                 	db	146
   104   001F23  0F                 	db	15
   105   001F24  93                 	db	147
   106   001F25  0F                 	db	15
   107   001F26  94                 	db	148
   108   001F27  0F                 	db	15
   109   001F28  95                 	db	149
   110   001F29  0F                 	db	15
   111   001F2A  96                 	db	150
   112   001F2B  0F                 	db	15
   113                           
   114                           ;initializer for _password
   115   001F2C  04D2               	dw	1234
   116                           
   117                           ;initializer for _index
   118   001F2E  01                 	db	1
   119                           
   120                           ;initializer for _ret
   121   001F2F  01                 	db	1
   122                           
   123                           ;initializer for _keypad
   124   001F30  03                 	db	3
   125   001F31  0B                 	db	11
   126   001F32  13                 	db	19
   127   001F33  1B                 	db	27
   128   001F34  63                 	db	99
   129   001F35  6B                 	db	107
   130   001F36  73                 	db	115
   131                           
   132                           ;initializer for _lcd
   133   001F37  02                 	db	2
   134   001F38  0A                 	db	10
   135   001F39  12                 	db	18
   136   001F3A  1A                 	db	26
   137   001F3B  22                 	db	34
   138   001F3C  2A                 	db	42
   139                           
   140                           ;initializer for _motor
   141   001F3D  00                 	db	0
   142   001F3E  08                 	db	8
   143                           
   144                           ;initializer for _led_red
   145   001F3F  72                 	db	114
   146   001F40  00                 	db	0
   147                           
   148                           ;initializer for _led_green
   149   001F41  62                 	db	98
   150   001F42  00                 	db	0
   151                           
   152                           	psect	smallconst
   153   001000                     __psmallconst:
   154                           	callstack 0
   155   001000  00                 	db	0
   156   001001                     _btn_values:
   157                           	callstack 0
   158   001001  31                 	db	49
   159   001002  32                 	db	50
   160   001003  33                 	db	51
   161   001004  34                 	db	52
   162   001005  35                 	db	53
   163   001006  36                 	db	54
   164   001007  37                 	db	55
   165   001008  38                 	db	56
   166   001009  39                 	db	57
   167   00100A  2A                 	db	42
   168   00100B  30                 	db	48
   169   00100C  23                 	db	35
   170   00100D                     __end_of_btn_values:
   171                           	callstack 0
   172   000000                     _PORTE	set	3972
   173   000000                     _PORTD	set	3971
   174   000000                     _PORTC	set	3970
   175   000000                     _PORTB	set	3969
   176   000000                     _PORTA	set	3968
   177   000000                     _LATA	set	3977
   178   000000                     _TRISA	set	3986
   179   000000                     _TRISE	set	3990
   180   000000                     _TRISD	set	3989
   181   000000                     _TRISC	set	3988
   182   000000                     _TRISB	set	3987
   183   000000                     _LATE	set	3981
   184   000000                     _LATD	set	3980
   185   000000                     _LATC	set	3979
   186   000000                     _LATB	set	3978
   187   00100D                     STR_5:
   188   00100D  45                 	db	69	;'E'
   189   00100E  6E                 	db	110	;'n'
   190   00100F  74                 	db	116	;'t'
   191   001010  65                 	db	101	;'e'
   192   001011  72                 	db	114	;'r'
   193   001012  20                 	db	32
   194   001013  59                 	db	89	;'Y'
   195   001014  6F                 	db	111	;'o'
   196   001015  75                 	db	117	;'u'
   197   001016  72                 	db	114	;'r'
   198   001017  20                 	db	32
   199   001018  50                 	db	80	;'P'
   200   001019  61                 	db	97	;'a'
   201   00101A  73                 	db	115	;'s'
   202   00101B  73                 	db	115	;'s'
   203   00101C  77                 	db	119	;'w'
   204   00101D  6F                 	db	111	;'o'
   205   00101E  72                 	db	114	;'r'
   206   00101F  64                 	db	100	;'d'
   207   001020  00                 	db	0
   208   001021                     STR_8:
   209   001021  49                 	db	73	;'I'
   210   001022  6E                 	db	110	;'n'
   211   001023  63                 	db	99	;'c'
   212   001024  6F                 	db	111	;'o'
   213   001025  72                 	db	114	;'r'
   214   001026  72                 	db	114	;'r'
   215   001027  65                 	db	101	;'e'
   216   001028  63                 	db	99	;'c'
   217   001029  74                 	db	116	;'t'
   218   00102A  20                 	db	32
   219   00102B  50                 	db	80	;'P'
   220   00102C  61                 	db	97	;'a'
   221   00102D  73                 	db	115	;'s'
   222   00102E  73                 	db	115	;'s'
   223   00102F  77                 	db	119	;'w'
   224   001030  6F                 	db	111	;'o'
   225   001031  72                 	db	114	;'r'
   226   001032  64                 	db	100	;'d'
   227   001033  00                 	db	0
   228   001034                     STR_6:
   229   001034  43                 	db	67	;'C'
   230   001035  6F                 	db	111	;'o'
   231   001036  72                 	db	114	;'r'
   232   001037  72                 	db	114	;'r'
   233   001038  65                 	db	101	;'e'
   234   001039  63                 	db	99	;'c'
   235   00103A  74                 	db	116	;'t'
   236   00103B  20                 	db	32
   237   00103C  50                 	db	80	;'P'
   238   00103D  61                 	db	97	;'a'
   239   00103E  73                 	db	115	;'s'
   240   00103F  73                 	db	115	;'s'
   241   001040  77                 	db	119	;'w'
   242   001041  6F                 	db	111	;'o'
   243   001042  72                 	db	114	;'r'
   244   001043  64                 	db	100	;'d'
   245   001044  00                 	db	0
   246   001045                     STR_7:
   247   001045  41                 	db	65	;'A'
   248   001046  63                 	db	99	;'c'
   249   001047  63                 	db	99	;'c'
   250   001048  65                 	db	101	;'e'
   251   001049  73                 	db	115	;'s'
   252   00104A  73                 	db	115	;'s'
   253   00104B  20                 	db	32
   254   00104C  47                 	db	71	;'G'
   255   00104D  72                 	db	114	;'r'
   256   00104E  61                 	db	97	;'a'
   257   00104F  6E                 	db	110	;'n'
   258   001050  74                 	db	116	;'t'
   259   001051  65                 	db	101	;'e'
   260   001052  64                 	db	100	;'d'
   261   001053  21                 	db	33
   262   001054  00                 	db	0
   263   001055                     STR_4:
   264   001055  57                 	db	87	;'W'
   265   001056  65                 	db	101	;'e'
   266   001057  6C                 	db	108	;'l'
   267   001058  63                 	db	99	;'c'
   268   001059  6F                 	db	111	;'o'
   269   00105A  6D                 	db	109	;'m'
   270   00105B  65                 	db	101	;'e'
   271   00105C  20                 	db	32
   272   00105D  48                 	db	72	;'H'
   273   00105E  6F                 	db	111	;'o'
   274   00105F  6D                 	db	109	;'m'
   275   001060  65                 	db	101	;'e'
   276   001061  20                 	db	32
   277   001062  00                 	db	0
   278   001063                     STR_1:
   279   001063  25                 	db	37
   280   001064  69                 	db	105	;'i'
   281   001065  00                 	db	0
   282   001066  00                 	db	0	; dummy byte at the end
   283   000000                     
   284                           ; #config settings
   285                           
   286                           	psect	cinit
   287   001ED8                     __pcinit:
   288                           	callstack 0
   289   001ED8                     start_initialization:
   290                           	callstack 0
   291   001ED8                     __initialization:
   292                           	callstack 0
   293                           
   294                           ; Initialize objects allocated to COMRAM (53 bytes)
   295                           ; load TBLPTR registers with __pidataCOMRAM
   296   001ED8  0E0E               	movlw	low __pidataCOMRAM
   297   001EDA  6EF6               	movwf	tblptrl,c
   298   001EDC  0E1F               	movlw	high __pidataCOMRAM
   299   001EDE  6EF7               	movwf	tblptrh,c
   300   001EE0  0E00               	movlw	low (__pidataCOMRAM shr (0+16))
   301   001EE2  6EF8               	movwf	tblptru,c
   302   001EE4  EE00  F001         	lfsr	0,__pdataCOMRAM
   303   001EE8  EE10 F035          	lfsr	1,53
   304   001EEC                     copy_data0:
   305   001EEC  0009               	tblrd		*+
   306   001EEE  CFF5 FFEE          	movff	tablat,postinc0
   307   001EF2  50E5               	movf	postdec1,w,c
   308   001EF4  50E1               	movf	fsr1l,w,c
   309   001EF6  E1FA               	bnz	copy_data0
   310                           
   311                           ; Clear objects allocated to COMRAM (9 bytes)
   312   001EF8  EE00  F058         	lfsr	0,__pbssCOMRAM
   313   001EFC  0E09               	movlw	9
   314   001EFE                     clear_0:
   315   001EFE  6AEE               	clrf	postinc0,c
   316   001F00  06E8               	decf	wreg,f,c
   317   001F02  E1FD               	bnz	clear_0
   318   001F04                     end_of_initialization:
   319                           	callstack 0
   320   001F04                     __end_of__initialization:
   321                           	callstack 0
   322   001F04  0E00               	movlw	low (__Lmediumconst shr (0+16))
   323   001F06  6EF8               	movwf	tblptru,c
   324   001F08  0100               	movlb	0
   325   001F0A  EF34  F008         	goto	_main	;jump to C main() function
   326                           
   327                           	psect	bssCOMRAM
   328   000058                     __pbssCOMRAM:
   329                           	callstack 0
   330   000058                     _enteredPassword:
   331                           	callstack 0
   332   000058                     	ds	2
   333   00005A                     _enterValue:
   334                           	callstack 0
   335   00005A                     	ds	1
   336   00005B                     _count:
   337                           	callstack 0
   338   00005B                     	ds	1
   339   00005C                     _clicked:
   340                           	callstack 0
   341   00005C                     	ds	1
   342   00005D                     led_toggle@F3063:
   343                           	callstack 0
   344   00005D                     	ds	1
   345   00005E                     led_turn_off@F3058:
   346                           	callstack 0
   347   00005E                     	ds	1
   348   00005F                     led_turn_on@F3053:
   349                           	callstack 0
   350   00005F                     	ds	1
   351   000060                     led_initialize@F3048:
   352                           	callstack 0
   353   000060                     	ds	1
   354                           
   355                           	psect	dataCOMRAM
   356   000001                     __pdataCOMRAM:
   357                           	callstack 0
   358   000001                     _port_register:
   359                           	callstack 0
   360   000001                     	ds	10
   361   00000B                     _lat_register:
   362                           	callstack 0
   363   00000B                     	ds	10
   364   000015                     _tris_register:
   365                           	callstack 0
   366   000015                     	ds	10
   367   00001F                     _password:
   368                           	callstack 0
   369   00001F                     	ds	2
   370   000021                     _index:
   371                           	callstack 0
   372   000021                     	ds	1
   373   000022                     _ret:
   374                           	callstack 0
   375   000022                     	ds	1
   376   000023                     _keypad:
   377                           	callstack 0
   378   000023                     	ds	7
   379   00002A                     _lcd:
   380                           	callstack 0
   381   00002A                     	ds	6
   382   000030                     _motor:
   383                           	callstack 0
   384   000030                     	ds	2
   385   000032                     _led_red:
   386                           	callstack 0
   387   000032                     	ds	2
   388   000034                     _led_green:
   389                           	callstack 0
   390   000034                     	ds	2
   391                           
   392                           	psect	cstackCOMRAM
   393   000036                     __pcstackCOMRAM:
   394                           	callstack 0
   395   000036                     ?___wmul:
   396                           	callstack 0
   397   000036                     gpio_pin_direction_initialize@pin_config:
   398                           	callstack 0
   399   000036                     gpio_pin_write_logic@pin_config:
   400                           	callstack 0
   401   000036                     gpio_pin_read_logic@pin_config:
   402                           	callstack 0
   403   000036                     ___wmul@multiplier:
   404                           	callstack 0
   405                           
   406                           ; 2 bytes @ 0x0
   407   000036                     	ds	2
   408   000038                     ??_gpio_pin_direction_initialize:
   409   000038                     gpio_pin_write_logic@logic:
   410                           	callstack 0
   411   000038                     gpio_pin_read_logic@logic:
   412                           	callstack 0
   413   000038                     ___wmul@multiplicand:
   414                           	callstack 0
   415                           
   416                           ; 2 bytes @ 0x2
   417   000038                     	ds	1
   418   000039                     ??_gpio_pin_write_logic:
   419                           
   420                           ; 1 bytes @ 0x3
   421   000039                     	ds	1
   422   00003A                     ??_gpio_pin_read_logic:
   423   00003A                     ___wmul@product:
   424                           	callstack 0
   425                           
   426                           ; 2 bytes @ 0x4
   427   00003A                     	ds	4
   428   00003E                     gpio_pin_direction_initialize@ret:
   429                           	callstack 0
   430                           
   431                           ; 1 bytes @ 0x8
   432   00003E                     	ds	1
   433   00003F                     gpio_pin_write_logic@ret:
   434                           	callstack 0
   435   00003F                     gpio_pin_read_logic@ret:
   436                           	callstack 0
   437   00003F                     led_initialize@led:
   438                           	callstack 0
   439                           
   440                           ; 2 bytes @ 0x9
   441   00003F                     	ds	1
   442   000040                     dc_motor_move_right@motor:
   443                           	callstack 0
   444   000040                     keypad_get_value@keypad:
   445                           	callstack 0
   446   000040                     lcd_4bit_send_enable@lcd:
   447                           	callstack 0
   448   000040                     lcd_send_4bits@lcd:
   449                           	callstack 0
   450   000040                     led_turn_on@led:
   451                           	callstack 0
   452   000040                     gpio_pin_initialize@pin_config:
   453                           	callstack 0
   454                           
   455                           ; 2 bytes @ 0xA
   456   000040                     	ds	1
   457   000041                     ??_led_initialize:
   458                           
   459                           ; 1 bytes @ 0xB
   460   000041                     	ds	1
   461   000042                     ??_gpio_pin_initialize:
   462   000042                     ??_led_turn_on:
   463   000042                     dc_motor_move_right@ret:
   464                           	callstack 0
   465   000042                     lcd_4bit_send_enable@ret:
   466                           	callstack 0
   467   000042                     lcd_send_4bits@data_command:
   468                           	callstack 0
   469   000042                     led_initialize@ret:
   470                           	callstack 0
   471   000042                     keypad_get_value@value:
   472                           	callstack 0
   473                           
   474                           ; 2 bytes @ 0xC
   475   000042                     	ds	1
   476   000043                     lcd_send_4bits@ret:
   477                           	callstack 0
   478   000043                     led_initialize@led_pin:
   479                           	callstack 0
   480   000043                     led_turn_on@ret:
   481                           	callstack 0
   482   000043                     gpio_pin_initialize@ret:
   483                           	callstack 0
   484                           
   485                           ; 1 bytes @ 0xD
   486   000043                     	ds	1
   487   000044                     ??_keypad_get_value:
   488   000044                     led_turn_on@led_pin:
   489                           	callstack 0
   490   000044                     dc_motor_initialize@motor:
   491                           	callstack 0
   492   000044                     keypad_initialize@keypad:
   493                           	callstack 0
   494   000044                     lcd_4bit_send_command@lcd:
   495                           	callstack 0
   496   000044                     lcd_4bit_send_char_data@lcd:
   497                           	callstack 0
   498                           
   499                           ; 2 bytes @ 0xE
   500   000044                     	ds	2
   501   000046                     ??_keypad_initialize:
   502   000046                     dc_motor_initialize@ret:
   503                           	callstack 0
   504   000046                     keypad_get_value@ret:
   505                           	callstack 0
   506   000046                     lcd_4bit_send_command@command:
   507                           	callstack 0
   508   000046                     lcd_4bit_send_char_data@data:
   509                           	callstack 0
   510                           
   511                           ; 1 bytes @ 0x10
   512   000046                     	ds	1
   513   000047                     keypad_get_value@col_logic:
   514                           	callstack 0
   515   000047                     lcd_4bit_send_command@ret:
   516                           	callstack 0
   517   000047                     lcd_4bit_send_char_data@ret:
   518                           	callstack 0
   519                           
   520                           ; 1 bytes @ 0x11
   521   000047                     	ds	1
   522   000048                     keypad_initialize@ret:
   523                           	callstack 0
   524   000048                     keypad_get_value@row_counter2:
   525                           	callstack 0
   526   000048                     lcd_4bit_initialize@lcd:
   527                           	callstack 0
   528   000048                     lcd_4bit_send_string@lcd:
   529                           	callstack 0
   530   000048                     lcd_4bit_set_cursor@lcd:
   531                           	callstack 0
   532                           
   533                           ; 2 bytes @ 0x12
   534   000048                     	ds	1
   535   000049                     keypad_initialize@row_counter:
   536                           	callstack 0
   537   000049                     keypad_get_value@row_counter:
   538                           	callstack 0
   539                           
   540                           ; 1 bytes @ 0x13
   541   000049                     	ds	1
   542   00004A                     ??_lcd_4bit_initialize:
   543   00004A                     keypad_initialize@col_counter:
   544                           	callstack 0
   545   00004A                     keypad_get_value@col_counter:
   546                           	callstack 0
   547   00004A                     lcd_4bit_set_cursor@row:
   548                           	callstack 0
   549   00004A                     lcd_4bit_send_string@str:
   550                           	callstack 0
   551                           
   552                           ; 2 bytes @ 0x14
   553   00004A                     	ds	1
   554   00004B                     ??_keypad_read_value:
   555   00004B                     lcd_4bit_set_cursor@column:
   556                           	callstack 0
   557                           
   558                           ; 1 bytes @ 0x15
   559   00004B                     	ds	1
   560   00004C                     ??_lcd_4bit_set_cursor:
   561   00004C                     lcd_4bit_initialize@pin:
   562                           	callstack 0
   563   00004C                     lcd_4bit_send_string@ret:
   564                           	callstack 0
   565                           
   566                           ; 1 bytes @ 0x16
   567   00004C                     	ds	1
   568   00004D                     lcd_4bit_initialize@ret:
   569                           	callstack 0
   570   00004D                     keypad_read_value@firstVal:
   571                           	callstack 0
   572                           
   573                           ; 1 bytes @ 0x17
   574   00004D                     	ds	1
   575   00004E                     lcd_4bit_set_cursor@ret:
   576                           	callstack 0
   577   00004E                     keypad_read_value@secondVal:
   578                           	callstack 0
   579                           
   580                           ; 1 bytes @ 0x18
   581   00004E                     	ds	1
   582   00004F                     lcd_4bit_send_data_pos@lcd:
   583                           	callstack 0
   584   00004F                     lcd_4bit_send_string_pos@lcd:
   585                           	callstack 0
   586                           
   587                           ; 2 bytes @ 0x19
   588   00004F                     	ds	2
   589   000051                     lcd_4bit_send_data_pos@row:
   590                           	callstack 0
   591   000051                     lcd_4bit_send_string_pos@str:
   592                           	callstack 0
   593                           
   594                           ; 2 bytes @ 0x1B
   595   000051                     	ds	1
   596   000052                     lcd_4bit_send_data_pos@column:
   597                           	callstack 0
   598                           
   599                           ; 1 bytes @ 0x1C
   600   000052                     	ds	1
   601   000053                     lcd_4bit_send_data_pos@data:
   602                           	callstack 0
   603   000053                     lcd_4bit_send_string_pos@row:
   604                           	callstack 0
   605                           
   606                           ; 1 bytes @ 0x1D
   607   000053                     	ds	1
   608   000054                     lcd_4bit_send_data_pos@ret:
   609                           	callstack 0
   610   000054                     lcd_4bit_send_string_pos@column:
   611                           	callstack 0
   612                           
   613                           ; 1 bytes @ 0x1E
   614   000054                     	ds	1
   615   000055                     lcd_4bit_send_string_pos@ret:
   616                           	callstack 0
   617                           
   618                           ; 1 bytes @ 0x1F
   619   000055                     	ds	1
   620   000056                     ??_main:
   621                           
   622                           ; 1 bytes @ 0x20
   623   000056                     	ds	2
   624                           
   625 ;;
   626 ;;Main: autosize = 0, tempsize = 2, incstack = 0, save=0
   627 ;;
   628 ;; *************** function _main *****************
   629 ;; Defined at:
   630 ;;		line 22 in file "application.c"
   631 ;; Parameters:    Size  Location     Type
   632 ;;		None
   633 ;; Auto vars:     Size  Location     Type
   634 ;;		None
   635 ;; Return value:  Size  Location     Type
   636 ;;                  2  374[None  ] int 
   637 ;; Registers used:
   638 ;;		wreg, fsr2l, fsr2h, status,2, status,0, tblptrl, tblptrh, tblptru, prodl, prodh, cstack
   639 ;; Tracked objects:
   640 ;;		On entry : 0/0
   641 ;;		On exit  : 0/0
   642 ;;		Unchanged: 0/0
   643 ;; Data sizes:     COMRAM   BANK0   BANK1   BANK2   BANK3   BANK4   BANK5   BANK6   BANK7   BANK8   BANK9  BANK10  BANK1
      +1  BANK12  BANK13  BANK14  BANK15
   644 ;;      Params:         0       0       0       0       0       0       0       0       0       0       0       0       
      +0       0       0       0       0
   645 ;;      Locals:         0       0       0       0       0       0       0       0       0       0       0       0       
      +0       0       0       0       0
   646 ;;      Temps:          2       0       0       0       0       0       0       0       0       0       0       0       
      +0       0       0       0       0
   647 ;;      Totals:         2       0       0       0       0       0       0       0       0       0       0       0       
      +0       0       0       0       0
   648 ;;Total ram usage:        2 bytes
   649 ;; Hardware stack levels required when called: 6
   650 ;; This function calls:
   651 ;;		___wmul
   652 ;;		_app_intialize
   653 ;;		_dc_motor_move_right
   654 ;;		_keypad_read_value
   655 ;;		_lcd_4bit_send_command
   656 ;;		_lcd_4bit_send_data_pos
   657 ;;		_lcd_4bit_send_string
   658 ;;		_lcd_4bit_send_string_pos
   659 ;;		_led_turn_on
   660 ;; This function is called by:
   661 ;;		Startup code after reset
   662 ;; This function uses a non-reentrant model
   663 ;;
   664                           
   665                           	psect	text0
   666   001068                     __ptext0:
   667                           	callstack 0
   668   001068                     _main:
   669                           	callstack 25
   670   001068                     
   671                           ;application.c: 23:     app_intialize();
   672   001068  ECB5  F00F         	call	_app_intialize	;wreg free
   673   00106C                     
   674                           ;application.c: 25:     ret = lcd_4bit_send_string(&lcd , "Welcome Home ");
   675   00106C  0E2A               	movlw	low _lcd
   676   00106E  6E48               	movwf	lcd_4bit_send_string@lcd^0,c
   677   001070  0E00               	movlw	high _lcd
   678   001072  6E49               	movwf	(lcd_4bit_send_string@lcd+1)^0,c
   679   001074  0E55               	movlw	low STR_4
   680   001076  6E4A               	movwf	lcd_4bit_send_string@str^0,c
   681   001078  0E10               	movlw	high STR_4
   682   00107A  6E4B               	movwf	(lcd_4bit_send_string@str+1)^0,c
   683   00107C  EC8C  F00E         	call	_lcd_4bit_send_string	;wreg free
   684   001080  6E22               	movwf	_ret^0,c
   685   001082                     
   686                           ;application.c: 26:     _delay((unsigned long)((250)*(8000000UL/4000.0)));
   687   001082  0E03               	movlw	3
   688   001084  6E57               	movwf	(??_main+1)^0,c
   689   001086  0E8A               	movlw	138
   690   001088  6E56               	movwf	??_main^0,c
   691   00108A  0E56               	movlw	86
   692   00108C                     u1217:
   693   00108C  2EE8               	decfsz	wreg,f,c
   694   00108E  D7FE               	bra	u1217
   695   001090  2E56               	decfsz	??_main^0,f,c
   696   001092  D7FC               	bra	u1217
   697   001094  2E57               	decfsz	(??_main+1)^0,f,c
   698   001096  D7FA               	bra	u1217
   699   001098                     
   700                           ;application.c: 27:     ret = lcd_4bit_send_string_pos(&lcd , "Enter Your Password" , 2 
      +                          , 1);
   701   001098  0E2A               	movlw	low _lcd
   702   00109A  6E4F               	movwf	lcd_4bit_send_string_pos@lcd^0,c
   703   00109C  0E00               	movlw	high _lcd
   704   00109E  6E50               	movwf	(lcd_4bit_send_string_pos@lcd+1)^0,c
   705   0010A0  0E0D               	movlw	low STR_5
   706   0010A2  6E51               	movwf	lcd_4bit_send_string_pos@str^0,c
   707   0010A4  0E10               	movlw	high STR_5
   708   0010A6  6E52               	movwf	(lcd_4bit_send_string_pos@str+1)^0,c
   709   0010A8  0E02               	movlw	2
   710   0010AA  6E53               	movwf	lcd_4bit_send_string_pos@row^0,c
   711   0010AC  0E01               	movlw	1
   712   0010AE  6E54               	movwf	lcd_4bit_send_string_pos@column^0,c
   713   0010B0  EC72  F00D         	call	_lcd_4bit_send_string_pos	;wreg free
   714   0010B4  6E22               	movwf	_ret^0,c
   715   0010B6                     
   716                           ;application.c: 28:     _delay((unsigned long)((400)*(8000000UL/4000.0)));
   717   0010B6  0E05               	movlw	5
   718   0010B8  6E57               	movwf	(??_main+1)^0,c
   719   0010BA  0E0F               	movlw	15
   720   0010BC  6E56               	movwf	??_main^0,c
   721   0010BE  0EF1               	movlw	241
   722   0010C0                     u1227:
   723   0010C0  2EE8               	decfsz	wreg,f,c
   724   0010C2  D7FE               	bra	u1227
   725   0010C4  2E56               	decfsz	??_main^0,f,c
   726   0010C6  D7FC               	bra	u1227
   727   0010C8  2E57               	decfsz	(??_main+1)^0,f,c
   728   0010CA  D7FA               	bra	u1227
   729   0010CC  F000               	nop	
   730                           
   731                           ;application.c: 29:     ret = lcd_4bit_send_command(&lcd,0x01);
   732   0010CE  0E2A               	movlw	low _lcd
   733   0010D0  6E44               	movwf	lcd_4bit_send_command@lcd^0,c
   734   0010D2  0E00               	movlw	high _lcd
   735   0010D4  6E45               	movwf	(lcd_4bit_send_command@lcd+1)^0,c
   736   0010D6  0E01               	movlw	1
   737   0010D8  6E46               	movwf	lcd_4bit_send_command@command^0,c
   738   0010DA  ECE5  F00D         	call	_lcd_4bit_send_command	;wreg free
   739   0010DE  6E22               	movwf	_ret^0,c
   740   0010E0                     l2214:
   741                           
   742                           ;application.c: 32:         enterValue = keypad_read_value();
   743   0010E0  EC1E  F00E         	call	_keypad_read_value	;wreg free
   744   0010E4  6E5A               	movwf	_enterValue^0,c
   745   0010E6                     
   746                           ;application.c: 33:         if(count == 4){
   747   0010E6  0E04               	movlw	4
   748   0010E8  185B               	xorwf	_count^0,w,c
   749   0010EA  A4D8               	btfss	status,2,c
   750   0010EC  EF7A  F008         	goto	u1161
   751   0010F0  EF7C  F008         	goto	u1160
   752   0010F4                     u1161:
   753   0010F4  EF09  F009         	goto	l2248
   754   0010F8                     u1160:
   755   0010F8                     
   756                           ;application.c: 34:             count = 0 ;
   757   0010F8  0E00               	movlw	0
   758   0010FA  6E5B               	movwf	_count^0,c
   759   0010FC                     
   760                           ;application.c: 35:             if(password == enteredPassword){
   761   0010FC  0ED2               	movlw	210
   762   0010FE  1858               	xorwf	_enteredPassword^0,w,c
   763   001100  E107               	bnz	u1171
   764   001102  0E04               	movlw	4
   765   001104  1859               	xorwf	(_enteredPassword+1)^0,w,c
   766   001106  A4D8               	btfss	status,2,c
   767   001108  EF88  F008         	goto	u1171
   768   00110C  EF8A  F008         	goto	u1170
   769   001110                     u1171:
   770   001110  EFCE  F008         	goto	l2236
   771   001114                     u1170:
   772   001114                     
   773                           ;application.c: 36:                 ret = lcd_4bit_send_command(&lcd,0x01);
   774   001114  0E2A               	movlw	low _lcd
   775   001116  6E44               	movwf	lcd_4bit_send_command@lcd^0,c
   776   001118  0E00               	movlw	high _lcd
   777   00111A  6E45               	movwf	(lcd_4bit_send_command@lcd+1)^0,c
   778   00111C  0E01               	movlw	1
   779   00111E  6E46               	movwf	lcd_4bit_send_command@command^0,c
   780   001120  ECE5  F00D         	call	_lcd_4bit_send_command	;wreg free
   781   001124  6E22               	movwf	_ret^0,c
   782   001126                     
   783                           ;application.c: 37:                 ret = lcd_4bit_send_string(&lcd , "Correct Password"
      +                          );
   784   001126  0E2A               	movlw	low _lcd
   785   001128  6E48               	movwf	lcd_4bit_send_string@lcd^0,c
   786   00112A  0E00               	movlw	high _lcd
   787   00112C  6E49               	movwf	(lcd_4bit_send_string@lcd+1)^0,c
   788   00112E  0E34               	movlw	low STR_6
   789   001130  6E4A               	movwf	lcd_4bit_send_string@str^0,c
   790   001132  0E10               	movlw	high STR_6
   791   001134  6E4B               	movwf	(lcd_4bit_send_string@str+1)^0,c
   792   001136  EC8C  F00E         	call	_lcd_4bit_send_string	;wreg free
   793   00113A  6E22               	movwf	_ret^0,c
   794   00113C                     
   795                           ;application.c: 38:                  _delay((unsigned long)((400)*(8000000UL/4000.0)));
   796   00113C  0E05               	movlw	5
   797   00113E  6E57               	movwf	(??_main+1)^0,c
   798   001140  0E0F               	movlw	15
   799   001142  6E56               	movwf	??_main^0,c
   800   001144  0EF1               	movlw	241
   801   001146                     u1237:
   802   001146  2EE8               	decfsz	wreg,f,c
   803   001148  D7FE               	bra	u1237
   804   00114A  2E56               	decfsz	??_main^0,f,c
   805   00114C  D7FC               	bra	u1237
   806   00114E  2E57               	decfsz	(??_main+1)^0,f,c
   807   001150  D7FA               	bra	u1237
   808   001152  F000               	nop	
   809   001154                     
   810                           ;application.c: 39:                 ret = lcd_4bit_send_command(&lcd,0x01);
   811   001154  0E2A               	movlw	low _lcd
   812   001156  6E44               	movwf	lcd_4bit_send_command@lcd^0,c
   813   001158  0E00               	movlw	high _lcd
   814   00115A  6E45               	movwf	(lcd_4bit_send_command@lcd+1)^0,c
   815   00115C  0E01               	movlw	1
   816   00115E  6E46               	movwf	lcd_4bit_send_command@command^0,c
   817   001160  ECE5  F00D         	call	_lcd_4bit_send_command	;wreg free
   818   001164  6E22               	movwf	_ret^0,c
   819   001166                     
   820                           ;application.c: 40:                 ret = lcd_4bit_send_string(&lcd , "Access Granted!")
      +                          ;
   821   001166  0E2A               	movlw	low _lcd
   822   001168  6E48               	movwf	lcd_4bit_send_string@lcd^0,c
   823   00116A  0E00               	movlw	high _lcd
   824   00116C  6E49               	movwf	(lcd_4bit_send_string@lcd+1)^0,c
   825   00116E  0E45               	movlw	low STR_7
   826   001170  6E4A               	movwf	lcd_4bit_send_string@str^0,c
   827   001172  0E10               	movlw	high STR_7
   828   001174  6E4B               	movwf	(lcd_4bit_send_string@str+1)^0,c
   829   001176  EC8C  F00E         	call	_lcd_4bit_send_string	;wreg free
   830   00117A  6E22               	movwf	_ret^0,c
   831   00117C                     
   832                           ;application.c: 41:                 ret = led_turn_on(&led_green);
   833   00117C  0E34               	movlw	low _led_green
   834   00117E  6E40               	movwf	led_turn_on@led^0,c
   835   001180  0E00               	movlw	high _led_green
   836   001182  6E41               	movwf	(led_turn_on@led+1)^0,c
   837   001184  EC68  F00C         	call	_led_turn_on	;wreg free
   838   001188  6E22               	movwf	_ret^0,c
   839   00118A                     
   840                           ;application.c: 42:                 ret = dc_motor_move_right(&motor);
   841   00118A  0E30               	movlw	low _motor
   842   00118C  6E40               	movwf	dc_motor_move_right@motor^0,c
   843   00118E  0E00               	movlw	high _motor
   844   001190  6E41               	movwf	(dc_motor_move_right@motor+1)^0,c
   845   001192  EC2A  F00F         	call	_dc_motor_move_right	;wreg free
   846   001196  6E22               	movwf	_ret^0,c
   847                           
   848                           ;application.c: 43:             }
   849   001198  EF09  F009         	goto	l2248
   850   00119C                     l2236:
   851                           
   852                           ;application.c: 45:                 ret = lcd_4bit_send_command(&lcd,0x01);
   853   00119C  0E2A               	movlw	low _lcd
   854   00119E  6E44               	movwf	lcd_4bit_send_command@lcd^0,c
   855   0011A0  0E00               	movlw	high _lcd
   856   0011A2  6E45               	movwf	(lcd_4bit_send_command@lcd+1)^0,c
   857   0011A4  0E01               	movlw	1
   858   0011A6  6E46               	movwf	lcd_4bit_send_command@command^0,c
   859   0011A8  ECE5  F00D         	call	_lcd_4bit_send_command	;wreg free
   860   0011AC  6E22               	movwf	_ret^0,c
   861   0011AE                     
   862                           ;application.c: 46:                 ret = lcd_4bit_send_string(&lcd , "Incorrect Passwor
      +                          d");
   863   0011AE  0E2A               	movlw	low _lcd
   864   0011B0  6E48               	movwf	lcd_4bit_send_string@lcd^0,c
   865   0011B2  0E00               	movlw	high _lcd
   866   0011B4  6E49               	movwf	(lcd_4bit_send_string@lcd+1)^0,c
   867   0011B6  0E21               	movlw	low STR_8
   868   0011B8  6E4A               	movwf	lcd_4bit_send_string@str^0,c
   869   0011BA  0E10               	movlw	high STR_8
   870   0011BC  6E4B               	movwf	(lcd_4bit_send_string@str+1)^0,c
   871   0011BE  EC8C  F00E         	call	_lcd_4bit_send_string	;wreg free
   872   0011C2  6E22               	movwf	_ret^0,c
   873   0011C4                     
   874                           ;application.c: 47:                  _delay((unsigned long)((400)*(8000000UL/4000.0)));
   875   0011C4  0E05               	movlw	5
   876   0011C6  6E57               	movwf	(??_main+1)^0,c
   877   0011C8  0E0F               	movlw	15
   878   0011CA  6E56               	movwf	??_main^0,c
   879   0011CC  0EF1               	movlw	241
   880   0011CE                     u1247:
   881   0011CE  2EE8               	decfsz	wreg,f,c
   882   0011D0  D7FE               	bra	u1247
   883   0011D2  2E56               	decfsz	??_main^0,f,c
   884   0011D4  D7FC               	bra	u1247
   885   0011D6  2E57               	decfsz	(??_main+1)^0,f,c
   886   0011D8  D7FA               	bra	u1247
   887   0011DA  F000               	nop	
   888   0011DC                     
   889                           ;application.c: 48:                 ret = lcd_4bit_send_command(&lcd,0x01);
   890   0011DC  0E2A               	movlw	low _lcd
   891   0011DE  6E44               	movwf	lcd_4bit_send_command@lcd^0,c
   892   0011E0  0E00               	movlw	high _lcd
   893   0011E2  6E45               	movwf	(lcd_4bit_send_command@lcd+1)^0,c
   894   0011E4  0E01               	movlw	1
   895   0011E6  6E46               	movwf	lcd_4bit_send_command@command^0,c
   896   0011E8  ECE5  F00D         	call	_lcd_4bit_send_command	;wreg free
   897   0011EC  6E22               	movwf	_ret^0,c
   898   0011EE                     
   899                           ;application.c: 49:                 ret = lcd_4bit_send_string(&lcd , "Access Granted!")
      +                          ;
   900   0011EE  0E2A               	movlw	low _lcd
   901   0011F0  6E48               	movwf	lcd_4bit_send_string@lcd^0,c
   902   0011F2  0E00               	movlw	high _lcd
   903   0011F4  6E49               	movwf	(lcd_4bit_send_string@lcd+1)^0,c
   904   0011F6  0E45               	movlw	low STR_7
   905   0011F8  6E4A               	movwf	lcd_4bit_send_string@str^0,c
   906   0011FA  0E10               	movlw	high STR_7
   907   0011FC  6E4B               	movwf	(lcd_4bit_send_string@str+1)^0,c
   908   0011FE  EC8C  F00E         	call	_lcd_4bit_send_string	;wreg free
   909   001202  6E22               	movwf	_ret^0,c
   910   001204                     
   911                           ;application.c: 50:                 ret = led_turn_on(&led_red);
   912   001204  0E32               	movlw	low _led_red
   913   001206  6E40               	movwf	led_turn_on@led^0,c
   914   001208  0E00               	movlw	high _led_red
   915   00120A  6E41               	movwf	(led_turn_on@led+1)^0,c
   916   00120C  EC68  F00C         	call	_led_turn_on	;wreg free
   917   001210  6E22               	movwf	_ret^0,c
   918   001212                     l2248:
   919                           
   920                           ;application.c: 53:         if(enterValue >= '0' && enterValue <= '9' && enterValue != '
      +                          #'){
   921   001212  0E2F               	movlw	47
   922   001214  645A               	cpfsgt	_enterValue^0,c
   923   001216  EF0F  F009         	goto	u1181
   924   00121A  EF11  F009         	goto	u1180
   925   00121E                     u1181:
   926   00121E  EF70  F008         	goto	l2214
   927   001222                     u1180:
   928   001222  0E3A               	movlw	58
   929   001224  605A               	cpfslt	_enterValue^0,c
   930   001226  EF17  F009         	goto	u1191
   931   00122A  EF19  F009         	goto	u1190
   932   00122E                     u1191:
   933   00122E  EF70  F008         	goto	l2214
   934   001232                     u1190:
   935   001232  0E23               	movlw	35
   936   001234  185A               	xorwf	_enterValue^0,w,c
   937   001236  B4D8               	btfsc	status,2,c
   938   001238  EF20  F009         	goto	u1201
   939   00123C  EF22  F009         	goto	u1200
   940   001240                     u1201:
   941   001240  EF70  F008         	goto	l2214
   942   001244                     u1200:
   943   001244                     
   944                           ;application.c: 54:            count++;
   945   001244  2A5B               	incf	_count^0,f,c
   946   001246                     
   947                           ;application.c: 55:            enteredPassword = (enteredPassword * 10) + (enterValue - 
      +                          '0');
   948   001246  C058  F036         	movff	_enteredPassword,___wmul@multiplier
   949   00124A  C059  F037         	movff	_enteredPassword+1,___wmul@multiplier+1
   950   00124E  0E00               	movlw	0
   951   001250  6E39               	movwf	(___wmul@multiplicand+1)^0,c
   952   001252  0E0A               	movlw	10
   953   001254  6E38               	movwf	___wmul@multiplicand^0,c
   954   001256  ECA2  F00F         	call	___wmul	;wreg free
   955   00125A  505A               	movf	_enterValue^0,w,c
   956   00125C  2636               	addwf	?___wmul^0,f,c
   957   00125E  0E00               	movlw	0
   958   001260  2237               	addwfc	(?___wmul+1)^0,f,c
   959   001262  0ED0               	movlw	208
   960   001264  2436               	addwf	?___wmul^0,w,c
   961   001266  6E58               	movwf	_enteredPassword^0,c
   962   001268  0EFF               	movlw	255
   963   00126A  2037               	addwfc	(?___wmul+1)^0,w,c
   964   00126C  6E59               	movwf	(_enteredPassword+1)^0,c
   965   00126E                     
   966                           ;application.c: 56:            ret = lcd_4bit_send_data_pos(&lcd , 1 , index , enterValu
      +                          e);
   967   00126E  0E2A               	movlw	low _lcd
   968   001270  6E4F               	movwf	lcd_4bit_send_data_pos@lcd^0,c
   969   001272  0E00               	movlw	high _lcd
   970   001274  6E50               	movwf	(lcd_4bit_send_data_pos@lcd+1)^0,c
   971   001276  0E01               	movlw	1
   972   001278  6E51               	movwf	lcd_4bit_send_data_pos@row^0,c
   973   00127A  C021  F052         	movff	_index,lcd_4bit_send_data_pos@column
   974   00127E  C05A  F053         	movff	_enterValue,lcd_4bit_send_data_pos@data
   975   001282  EC07  F00F         	call	_lcd_4bit_send_data_pos	;wreg free
   976   001286  6E22               	movwf	_ret^0,c
   977   001288                     
   978                           ;application.c: 57:            _delay((unsigned long)((200)*(8000000UL/4000.0)));
   979   001288  0E03               	movlw	3
   980   00128A  6E57               	movwf	(??_main+1)^0,c
   981   00128C  0E08               	movlw	8
   982   00128E  6E56               	movwf	??_main^0,c
   983   001290  0E77               	movlw	119
   984   001292                     u1257:
   985   001292  2EE8               	decfsz	wreg,f,c
   986   001294  D7FE               	bra	u1257
   987   001296  2E56               	decfsz	??_main^0,f,c
   988   001298  D7FC               	bra	u1257
   989   00129A  2E57               	decfsz	(??_main+1)^0,f,c
   990   00129C  D7FA               	bra	u1257
   991   00129E  F000               	nop	
   992   0012A0                     
   993                           ;application.c: 58:            ret = lcd_4bit_send_data_pos(&lcd , 1 , index , '*');
   994   0012A0  0E2A               	movlw	low _lcd
   995   0012A2  6E4F               	movwf	lcd_4bit_send_data_pos@lcd^0,c
   996   0012A4  0E00               	movlw	high _lcd
   997   0012A6  6E50               	movwf	(lcd_4bit_send_data_pos@lcd+1)^0,c
   998   0012A8  0E01               	movlw	1
   999   0012AA  6E51               	movwf	lcd_4bit_send_data_pos@row^0,c
  1000   0012AC  C021  F052         	movff	_index,lcd_4bit_send_data_pos@column
  1001   0012B0  0E2A               	movlw	42
  1002   0012B2  6E53               	movwf	lcd_4bit_send_data_pos@data^0,c
  1003   0012B4  EC07  F00F         	call	_lcd_4bit_send_data_pos	;wreg free
  1004   0012B8  6E22               	movwf	_ret^0,c
  1005   0012BA                     
  1006                           ;application.c: 59:            index++;
  1007   0012BA  2A21               	incf	_index^0,f,c
  1008   0012BC  EF70  F008         	goto	l2214
  1009   0012C0  EF00  F000         	goto	start
  1010   0012C4                     __end_of_main:
  1011                           	callstack 0
  1012                           
  1013 ;; *************** function _led_turn_on *****************
  1014 ;; Defined at:
  1015 ;;		line 43 in file "ECU_Layer/LED/ecu_led.c"
  1016 ;; Parameters:    Size  Location     Type
  1017 ;;  led             2   10[COMRAM] PTR const struct .
  1018 ;;		 -> led_red(2), led_green(2), 
  1019 ;; Auto vars:     Size  Location     Type
  1020 ;;  led_pin         1   14[COMRAM] struct .
  1021 ;;  ret             1   13[COMRAM] unsigned char 
  1022 ;; Return value:  Size  Location     Type
  1023 ;;                  1    wreg      unsigned char 
  1024 ;; Registers used:
  1025 ;;		wreg, fsr2l, fsr2h, status,2, status,0, prodl, prodh, cstack
  1026 ;; Tracked objects:
  1027 ;;		On entry : 0/0
  1028 ;;		On exit  : 0/0
  1029 ;;		Unchanged: 0/0
  1030 ;; Data sizes:     COMRAM   BANK0   BANK1   BANK2   BANK3   BANK4   BANK5   BANK6   BANK7   BANK8   BANK9  BANK10  BANK1
      +1  BANK12  BANK13  BANK14  BANK15
  1031 ;;      Params:         2       0       0       0       0       0       0       0       0       0       0       0       
      +0       0       0       0       0
  1032 ;;      Locals:         2       0       0       0       0       0       0       0       0       0       0       0       
      +0       0       0       0       0
  1033 ;;      Temps:          1       0       0       0       0       0       0       0       0       0       0       0       
      +0       0       0       0       0
  1034 ;;      Totals:         5       0       0       0       0       0       0       0       0       0       0       0       
      +0       0       0       0       0
  1035 ;;Total ram usage:        5 bytes
  1036 ;; Hardware stack levels used: 1
  1037 ;; Hardware stack levels required when called: 1
  1038 ;; This function calls:
  1039 ;;		_gpio_pin_write_logic
  1040 ;; This function is called by:
  1041 ;;		_main
  1042 ;; This function uses a non-reentrant model
  1043 ;;
  1044                           
  1045                           	psect	text1
  1046   0018D0                     __ptext1:
  1047                           	callstack 0
  1048   0018D0                     _led_turn_on:
  1049                           	callstack 29
  1050   0018D0                     
  1051                           ;ECU_Layer/LED/ecu_led.c: 44:     std_ReturnType ret = (std_ReturnType)0x01;
  1052   0018D0  0E01               	movlw	1
  1053   0018D2  6E43               	movwf	led_turn_on@ret^0,c
  1054   0018D4                     
  1055                           ;ECU_Layer/LED/ecu_led.c: 45:     if(led == ((void*)0)){
  1056   0018D4  5040               	movf	led_turn_on@led^0,w,c
  1057   0018D6  1041               	iorwf	(led_turn_on@led+1)^0,w,c
  1058   0018D8  A4D8               	btfss	status,2,c
  1059   0018DA  EF71  F00C         	goto	u1101
  1060   0018DE  EF73  F00C         	goto	u1100
  1061   0018E2                     u1101:
  1062   0018E2  EF77  F00C         	goto	l165
  1063   0018E6                     u1100:
  1064   0018E6                     
  1065                           ;ECU_Layer/LED/ecu_led.c: 46:         ret = (std_ReturnType)0x00;
  1066   0018E6  0E00               	movlw	0
  1067   0018E8  6E43               	movwf	led_turn_on@ret^0,c
  1068                           
  1069                           ;ECU_Layer/LED/ecu_led.c: 47:     }
  1070   0018EA  EFAC  F00C         	goto	l2132
  1071   0018EE                     l165:
  1072                           
  1073                           ;ECU_Layer/LED/ecu_led.c: 49:     {;ECU_Layer/LED/ecu_led.c: 50:        pin_config_t led
      +                          _pin = {
  1074   0018EE  C05F  F044         	movff	led_turn_on@F3053,led_turn_on@led_pin
  1075   0018F2  C040  FFD9         	movff	led_turn_on@led,fsr2l
  1076   0018F6  C041  FFDA         	movff	led_turn_on@led+1,fsr2h
  1077   0018FA  50DF               	movf	223,w,c
  1078   0018FC  0B0F               	andlw	15
  1079   0018FE  6E42               	movwf	??_led_turn_on^0,c
  1080   001900  5044               	movf	led_turn_on@led_pin^0,w,c
  1081   001902  1842               	xorwf	??_led_turn_on^0,w,c
  1082   001904  0BF8               	andlw	-8
  1083   001906  1842               	xorwf	??_led_turn_on^0,w,c
  1084   001908  6E44               	movwf	led_turn_on@led_pin^0,c
  1085   00190A  C040  FFD9         	movff	led_turn_on@led,fsr2l
  1086   00190E  C041  FFDA         	movff	led_turn_on@led+1,fsr2h
  1087   001912  38DF               	swapf	223,w,c
  1088   001914  0B07               	andlw	7
  1089   001916  6E42               	movwf	??_led_turn_on^0,c
  1090   001918  4642               	rlncf	??_led_turn_on^0,f,c
  1091   00191A  4642               	rlncf	??_led_turn_on^0,f,c
  1092   00191C  4642               	rlncf	??_led_turn_on^0,f,c
  1093   00191E  5044               	movf	led_turn_on@led_pin^0,w,c
  1094   001920  1842               	xorwf	??_led_turn_on^0,w,c
  1095   001922  0BC7               	andlw	-57
  1096   001924  1842               	xorwf	??_led_turn_on^0,w,c
  1097   001926  6E44               	movwf	led_turn_on@led_pin^0,c
  1098   001928  9C44               	bcf	led_turn_on@led_pin^0,6,c
  1099   00192A  EE20 F001          	lfsr	2,1
  1100   00192E  5040               	movf	led_turn_on@led^0,w,c
  1101   001930  26D9               	addwf	fsr2l,f,c
  1102   001932  5041               	movf	(led_turn_on@led+1)^0,w,c
  1103   001934  22DA               	addwfc	fsr2h,f,c
  1104   001936  50DF               	movf	indf2,w,c
  1105   001938  6E42               	movwf	??_led_turn_on^0,c
  1106   00193A  3242               	rrcf	??_led_turn_on^0,f,c
  1107   00193C  3242               	rrcf	??_led_turn_on^0,f,c
  1108   00193E  5044               	movf	led_turn_on@led_pin^0,w,c
  1109   001940  1842               	xorwf	??_led_turn_on^0,w,c
  1110   001942  0B7F               	andlw	-129
  1111   001944  1842               	xorwf	??_led_turn_on^0,w,c
  1112   001946  6E44               	movwf	led_turn_on@led_pin^0,c
  1113   001948                     
  1114                           ;ECU_Layer/LED/ecu_led.c: 55:        gpio_pin_write_logic (&led_pin , GPIO_HIGH);
  1115   001948  0E44               	movlw	low led_turn_on@led_pin
  1116   00194A  6E36               	movwf	gpio_pin_write_logic@pin_config^0,c
  1117   00194C  0E00               	movlw	high led_turn_on@led_pin
  1118   00194E  6E37               	movwf	(gpio_pin_write_logic@pin_config+1)^0,c
  1119   001950  0E01               	movlw	1
  1120   001952  6E38               	movwf	gpio_pin_write_logic@logic^0,c
  1121   001954  EC04  F00A         	call	_gpio_pin_write_logic	;wreg free
  1122   001958                     l2132:
  1123                           
  1124                           ;ECU_Layer/LED/ecu_led.c: 57:     return ret;
  1125   001958  5043               	movf	led_turn_on@ret^0,w,c
  1126   00195A  0012               	return		;funcret
  1127   00195C                     __end_of_led_turn_on:
  1128                           	callstack 0
  1129                           
  1130 ;; *************** function _lcd_4bit_send_string_pos *****************
  1131 ;; Defined at:
  1132 ;;		line 98 in file "ECU_Layer/LCD/ecu_lcd.c"
  1133 ;; Parameters:    Size  Location     Type
  1134 ;;  lcd             2   25[COMRAM] PTR const struct .
  1135 ;;		 -> lcd(6), 
  1136 ;;  str             2   27[COMRAM] PTR unsigned char 
  1137 ;;		 -> STR_5(20), 
  1138 ;;  row             1   29[COMRAM] unsigned char 
  1139 ;;  column          1   30[COMRAM] unsigned char 
  1140 ;; Auto vars:     Size  Location     Type
  1141 ;;  ret             1   31[COMRAM] unsigned char 
  1142 ;; Return value:  Size  Location     Type
  1143 ;;                  1    wreg      unsigned char 
  1144 ;; Registers used:
  1145 ;;		wreg, fsr2l, fsr2h, status,2, status,0, tblptrl, tblptrh, tblptru, prodl, prodh, cstack
  1146 ;; Tracked objects:
  1147 ;;		On entry : 0/0
  1148 ;;		On exit  : 0/0
  1149 ;;		Unchanged: 0/0
  1150 ;; Data sizes:     COMRAM   BANK0   BANK1   BANK2   BANK3   BANK4   BANK5   BANK6   BANK7   BANK8   BANK9  BANK10  BANK1
      +1  BANK12  BANK13  BANK14  BANK15
  1151 ;;      Params:         6       0       0       0       0       0       0       0       0       0       0       0       
      +0       0       0       0       0
  1152 ;;      Locals:         1       0       0       0       0       0       0       0       0       0       0       0       
      +0       0       0       0       0
  1153 ;;      Temps:          0       0       0       0       0       0       0       0       0       0       0       0       
      +0       0       0       0       0
  1154 ;;      Totals:         7       0       0       0       0       0       0       0       0       0       0       0       
      +0       0       0       0       0
  1155 ;;Total ram usage:        7 bytes
  1156 ;; Hardware stack levels used: 1
  1157 ;; Hardware stack levels required when called: 4
  1158 ;; This function calls:
  1159 ;;		_lcd_4bit_send_char_data
  1160 ;;		_lcd_4bit_set_cursor
  1161 ;; This function is called by:
  1162 ;;		_main
  1163 ;; This function uses a non-reentrant model
  1164 ;;
  1165                           
  1166                           	psect	text2
  1167   001AE4                     __ptext2:
  1168                           	callstack 0
  1169   001AE4                     _lcd_4bit_send_string_pos:
  1170                           	callstack 26
  1171   001AE4                     
  1172                           ;ECU_Layer/LCD/ecu_lcd.c: 100:     if(lcd == ((void*)0)){
  1173   001AE4  504F               	movf	lcd_4bit_send_string_pos@lcd^0,w,c
  1174   001AE6  1050               	iorwf	(lcd_4bit_send_string_pos@lcd+1)^0,w,c
  1175   001AE8  A4D8               	btfss	status,2,c
  1176   001AEA  EF79  F00D         	goto	u1081
  1177   001AEE  EF7B  F00D         	goto	u1080
  1178   001AF2                     u1081:
  1179   001AF2  EF7F  F00D         	goto	l2108
  1180   001AF6                     u1080:
  1181   001AF6                     
  1182                           ;ECU_Layer/LCD/ecu_lcd.c: 101:         ret = (std_ReturnType)0x00;
  1183   001AF6  0E00               	movlw	0
  1184   001AF8  6E55               	movwf	lcd_4bit_send_string_pos@ret^0,c
  1185                           
  1186                           ;ECU_Layer/LCD/ecu_lcd.c: 102:     }
  1187   001AFA  EFAA  F00D         	goto	l2116
  1188   001AFE                     l2108:
  1189                           
  1190                           ;ECU_Layer/LCD/ecu_lcd.c: 104:         ret = lcd_4bit_set_cursor(lcd , row , column);
  1191   001AFE  C04F  F048         	movff	lcd_4bit_send_string_pos@lcd,lcd_4bit_set_cursor@lcd
  1192   001B02  C050  F049         	movff	lcd_4bit_send_string_pos@lcd+1,lcd_4bit_set_cursor@lcd+1
  1193   001B06  C053  F04A         	movff	lcd_4bit_send_string_pos@row,lcd_4bit_set_cursor@row
  1194   001B0A  C054  F04B         	movff	lcd_4bit_send_string_pos@column,lcd_4bit_set_cursor@column
  1195   001B0E  ECAD  F00B         	call	_lcd_4bit_set_cursor	;wreg free
  1196   001B12  6E55               	movwf	lcd_4bit_send_string_pos@ret^0,c
  1197                           
  1198                           ;ECU_Layer/LCD/ecu_lcd.c: 105:         while(*str){
  1199   001B14  EF9C  F00D         	goto	l2114
  1200   001B18                     l2110:
  1201                           
  1202                           ;ECU_Layer/LCD/ecu_lcd.c: 106:             ret = lcd_4bit_send_char_data(lcd , *str++);
  1203   001B18  C04F  F044         	movff	lcd_4bit_send_string_pos@lcd,lcd_4bit_send_char_data@lcd
  1204   001B1C  C050  F045         	movff	lcd_4bit_send_string_pos@lcd+1,lcd_4bit_send_char_data@lcd+1
  1205   001B20  C051  FFF6         	movff	lcd_4bit_send_string_pos@str,tblptrl
  1206   001B24  C052  FFF7         	movff	lcd_4bit_send_string_pos@str+1,tblptrh
  1207   001B28                     	if	0	;tblptru may be non-zero
  1208   001B28                     	endif
  1209   001B28                     	if	0	;tblptru may be non-zero
  1210   001B28                     	endif
  1211   001B28  0008               	tblrd		*
  1212   001B2A  CFF5 F046          	movff	tablat,lcd_4bit_send_char_data@data
  1213   001B2E  ECAC  F00D         	call	_lcd_4bit_send_char_data	;wreg free
  1214   001B32  6E55               	movwf	lcd_4bit_send_string_pos@ret^0,c
  1215   001B34  4A51               	infsnz	lcd_4bit_send_string_pos@str^0,f,c
  1216   001B36  2A52               	incf	(lcd_4bit_send_string_pos@str+1)^0,f,c
  1217   001B38                     l2114:
  1218                           
  1219                           ;ECU_Layer/LCD/ecu_lcd.c: 105:         while(*str){
  1220   001B38  C051  FFF6         	movff	lcd_4bit_send_string_pos@str,tblptrl
  1221   001B3C  C052  FFF7         	movff	lcd_4bit_send_string_pos@str+1,tblptrh
  1222   001B40                     	if	0	;tblptru may be non-zero
  1223   001B40                     	endif
  1224   001B40                     	if	0	;tblptru may be non-zero
  1225   001B40                     	endif
  1226   001B40  0008               	tblrd		*
  1227   001B42  50F5               	movf	tablat,w,c
  1228   001B44  0900               	iorlw	0
  1229   001B46  A4D8               	btfss	status,2,c
  1230   001B48  EFA8  F00D         	goto	u1091
  1231   001B4C  EFAA  F00D         	goto	u1090
  1232   001B50                     u1091:
  1233   001B50  EF8C  F00D         	goto	l2110
  1234   001B54                     u1090:
  1235   001B54                     l2116:
  1236                           
  1237                           ;ECU_Layer/LCD/ecu_lcd.c: 110:     return ret;
  1238   001B54  5055               	movf	lcd_4bit_send_string_pos@ret^0,w,c
  1239   001B56  0012               	return		;funcret
  1240   001B58                     __end_of_lcd_4bit_send_string_pos:
  1241                           	callstack 0
  1242                           
  1243 ;; *************** function _lcd_4bit_send_string *****************
  1244 ;; Defined at:
  1245 ;;		line 84 in file "ECU_Layer/LCD/ecu_lcd.c"
  1246 ;; Parameters:    Size  Location     Type
  1247 ;;  lcd             2   18[COMRAM] PTR const struct .
  1248 ;;		 -> lcd(6), 
  1249 ;;  str             2   20[COMRAM] PTR unsigned char 
  1250 ;;		 -> STR_9(16), STR_8(19), STR_7(16), STR_6(17), 
  1251 ;;		 -> STR_4(14), 
  1252 ;; Auto vars:     Size  Location     Type
  1253 ;;  ret             1   22[COMRAM] unsigned char 
  1254 ;; Return value:  Size  Location     Type
  1255 ;;                  1    wreg      unsigned char 
  1256 ;; Registers used:
  1257 ;;		wreg, fsr2l, fsr2h, status,2, status,0, tblptrl, tblptrh, tblptru, prodl, prodh, cstack
  1258 ;; Tracked objects:
  1259 ;;		On entry : 0/0
  1260 ;;		On exit  : 0/0
  1261 ;;		Unchanged: 0/0
  1262 ;; Data sizes:     COMRAM   BANK0   BANK1   BANK2   BANK3   BANK4   BANK5   BANK6   BANK7   BANK8   BANK9  BANK10  BANK1
      +1  BANK12  BANK13  BANK14  BANK15
  1263 ;;      Params:         4       0       0       0       0       0       0       0       0       0       0       0       
      +0       0       0       0       0
  1264 ;;      Locals:         1       0       0       0       0       0       0       0       0       0       0       0       
      +0       0       0       0       0
  1265 ;;      Temps:          0       0       0       0       0       0       0       0       0       0       0       0       
      +0       0       0       0       0
  1266 ;;      Totals:         5       0       0       0       0       0       0       0       0       0       0       0       
      +0       0       0       0       0
  1267 ;;Total ram usage:        5 bytes
  1268 ;; Hardware stack levels used: 1
  1269 ;; Hardware stack levels required when called: 3
  1270 ;; This function calls:
  1271 ;;		_lcd_4bit_send_char_data
  1272 ;; This function is called by:
  1273 ;;		_main
  1274 ;; This function uses a non-reentrant model
  1275 ;;
  1276                           
  1277                           	psect	text3
  1278   001D18                     __ptext3:
  1279                           	callstack 0
  1280   001D18                     _lcd_4bit_send_string:
  1281                           	callstack 27
  1282   001D18                     
  1283                           ;ECU_Layer/LCD/ecu_lcd.c: 85:     std_ReturnType ret = (std_ReturnType)0x01;
  1284   001D18  0E01               	movlw	1
  1285   001D1A  6E4C               	movwf	lcd_4bit_send_string@ret^0,c
  1286   001D1C                     
  1287                           ;ECU_Layer/LCD/ecu_lcd.c: 86:     if(lcd == ((void*)0)){
  1288   001D1C  5048               	movf	lcd_4bit_send_string@lcd^0,w,c
  1289   001D1E  1049               	iorwf	(lcd_4bit_send_string@lcd+1)^0,w,c
  1290   001D20  A4D8               	btfss	status,2,c
  1291   001D22  EF95  F00E         	goto	u1061
  1292   001D26  EF97  F00E         	goto	u1060
  1293   001D2A                     u1061:
  1294   001D2A  EFAB  F00E         	goto	l2096
  1295   001D2E                     u1060:
  1296   001D2E                     
  1297                           ;ECU_Layer/LCD/ecu_lcd.c: 87:         ret = (std_ReturnType)0x00;
  1298   001D2E  0E00               	movlw	0
  1299   001D30  6E4C               	movwf	lcd_4bit_send_string@ret^0,c
  1300                           
  1301                           ;ECU_Layer/LCD/ecu_lcd.c: 88:     }
  1302   001D32  EFB9  F00E         	goto	l2098
  1303   001D36                     l2092:
  1304                           
  1305                           ;ECU_Layer/LCD/ecu_lcd.c: 91:             ret = lcd_4bit_send_char_data(lcd , *str++);
  1306   001D36  C048  F044         	movff	lcd_4bit_send_string@lcd,lcd_4bit_send_char_data@lcd
  1307   001D3A  C049  F045         	movff	lcd_4bit_send_string@lcd+1,lcd_4bit_send_char_data@lcd+1
  1308   001D3E  C04A  FFF6         	movff	lcd_4bit_send_string@str,tblptrl
  1309   001D42  C04B  FFF7         	movff	lcd_4bit_send_string@str+1,tblptrh
  1310   001D46                     	if	0	;tblptru may be non-zero
  1311   001D46                     	endif
  1312   001D46                     	if	0	;tblptru may be non-zero
  1313   001D46                     	endif
  1314   001D46  0008               	tblrd		*
  1315   001D48  CFF5 F046          	movff	tablat,lcd_4bit_send_char_data@data
  1316   001D4C  ECAC  F00D         	call	_lcd_4bit_send_char_data	;wreg free
  1317   001D50  6E4C               	movwf	lcd_4bit_send_string@ret^0,c
  1318   001D52  4A4A               	infsnz	lcd_4bit_send_string@str^0,f,c
  1319   001D54  2A4B               	incf	(lcd_4bit_send_string@str+1)^0,f,c
  1320   001D56                     l2096:
  1321                           
  1322                           ;ECU_Layer/LCD/ecu_lcd.c: 90:         while(*str){
  1323   001D56  C04A  FFF6         	movff	lcd_4bit_send_string@str,tblptrl
  1324   001D5A  C04B  FFF7         	movff	lcd_4bit_send_string@str+1,tblptrh
  1325   001D5E                     	if	0	;tblptru may be non-zero
  1326   001D5E                     	endif
  1327   001D5E                     	if	0	;tblptru may be non-zero
  1328   001D5E                     	endif
  1329   001D5E  0008               	tblrd		*
  1330   001D60  50F5               	movf	tablat,w,c
  1331   001D62  0900               	iorlw	0
  1332   001D64  A4D8               	btfss	status,2,c
  1333   001D66  EFB7  F00E         	goto	u1071
  1334   001D6A  EFB9  F00E         	goto	u1070
  1335   001D6E                     u1071:
  1336   001D6E  EF9B  F00E         	goto	l2092
  1337   001D72                     u1070:
  1338   001D72                     l2098:
  1339                           
  1340                           ;ECU_Layer/LCD/ecu_lcd.c: 95:     return ret;
  1341   001D72  504C               	movf	lcd_4bit_send_string@ret^0,w,c
  1342   001D74  0012               	return		;funcret
  1343   001D76                     __end_of_lcd_4bit_send_string:
  1344                           	callstack 0
  1345                           
  1346 ;; *************** function _lcd_4bit_send_data_pos *****************
  1347 ;; Defined at:
  1348 ;;		line 72 in file "ECU_Layer/LCD/ecu_lcd.c"
  1349 ;; Parameters:    Size  Location     Type
  1350 ;;  lcd             2   25[COMRAM] PTR const struct .
  1351 ;;		 -> lcd(6), 
  1352 ;;  row             1   27[COMRAM] unsigned char 
  1353 ;;  column          1   28[COMRAM] unsigned char 
  1354 ;;  data            1   29[COMRAM] unsigned char 
  1355 ;; Auto vars:     Size  Location     Type
  1356 ;;  ret             1   30[COMRAM] unsigned char 
  1357 ;; Return value:  Size  Location     Type
  1358 ;;                  1    wreg      unsigned char 
  1359 ;; Registers used:
  1360 ;;		wreg, fsr2l, fsr2h, status,2, status,0, prodl, prodh, cstack
  1361 ;; Tracked objects:
  1362 ;;		On entry : 0/0
  1363 ;;		On exit  : 0/0
  1364 ;;		Unchanged: 0/0
  1365 ;; Data sizes:     COMRAM   BANK0   BANK1   BANK2   BANK3   BANK4   BANK5   BANK6   BANK7   BANK8   BANK9  BANK10  BANK1
      +1  BANK12  BANK13  BANK14  BANK15
  1366 ;;      Params:         5       0       0       0       0       0       0       0       0       0       0       0       
      +0       0       0       0       0
  1367 ;;      Locals:         1       0       0       0       0       0       0       0       0       0       0       0       
      +0       0       0       0       0
  1368 ;;      Temps:          0       0       0       0       0       0       0       0       0       0       0       0       
      +0       0       0       0       0
  1369 ;;      Totals:         6       0       0       0       0       0       0       0       0       0       0       0       
      +0       0       0       0       0
  1370 ;;Total ram usage:        6 bytes
  1371 ;; Hardware stack levels used: 1
  1372 ;; Hardware stack levels required when called: 4
  1373 ;; This function calls:
  1374 ;;		_lcd_4bit_send_char_data
  1375 ;;		_lcd_4bit_set_cursor
  1376 ;; This function is called by:
  1377 ;;		_main
  1378 ;; This function uses a non-reentrant model
  1379 ;;
  1380                           
  1381                           	psect	text4
  1382   001E0E                     __ptext4:
  1383                           	callstack 0
  1384   001E0E                     _lcd_4bit_send_data_pos:
  1385                           	callstack 26
  1386   001E0E                     
  1387                           ;ECU_Layer/LCD/ecu_lcd.c: 74:     if(lcd == ((void*)0)){
  1388   001E0E  504F               	movf	lcd_4bit_send_data_pos@lcd^0,w,c
  1389   001E10  1050               	iorwf	(lcd_4bit_send_data_pos@lcd+1)^0,w,c
  1390   001E12  A4D8               	btfss	status,2,c
  1391   001E14  EF0E  F00F         	goto	u1051
  1392   001E18  EF10  F00F         	goto	u1050
  1393   001E1C                     u1051:
  1394   001E1C  EF14  F00F         	goto	l2080
  1395   001E20                     u1050:
  1396   001E20                     
  1397                           ;ECU_Layer/LCD/ecu_lcd.c: 75:         ret = (std_ReturnType)0x00;
  1398   001E20  0E00               	movlw	0
  1399   001E22  6E54               	movwf	lcd_4bit_send_data_pos@ret^0,c
  1400                           
  1401                           ;ECU_Layer/LCD/ecu_lcd.c: 76:     }
  1402   001E24  EF28  F00F         	goto	l2082
  1403   001E28                     l2080:
  1404                           
  1405                           ;ECU_Layer/LCD/ecu_lcd.c: 78:         ret = lcd_4bit_set_cursor(lcd , row , column);
  1406   001E28  C04F  F048         	movff	lcd_4bit_send_data_pos@lcd,lcd_4bit_set_cursor@lcd
  1407   001E2C  C050  F049         	movff	lcd_4bit_send_data_pos@lcd+1,lcd_4bit_set_cursor@lcd+1
  1408   001E30  C051  F04A         	movff	lcd_4bit_send_data_pos@row,lcd_4bit_set_cursor@row
  1409   001E34  C052  F04B         	movff	lcd_4bit_send_data_pos@column,lcd_4bit_set_cursor@column
  1410   001E38  ECAD  F00B         	call	_lcd_4bit_set_cursor	;wreg free
  1411   001E3C  6E54               	movwf	lcd_4bit_send_data_pos@ret^0,c
  1412                           
  1413                           ;ECU_Layer/LCD/ecu_lcd.c: 79:         ret = lcd_4bit_send_char_data(lcd , data);
  1414   001E3E  C04F  F044         	movff	lcd_4bit_send_data_pos@lcd,lcd_4bit_send_char_data@lcd
  1415   001E42  C050  F045         	movff	lcd_4bit_send_data_pos@lcd+1,lcd_4bit_send_char_data@lcd+1
  1416   001E46  C053  F046         	movff	lcd_4bit_send_data_pos@data,lcd_4bit_send_char_data@data
  1417   001E4A  ECAC  F00D         	call	_lcd_4bit_send_char_data	;wreg free
  1418   001E4E  6E54               	movwf	lcd_4bit_send_data_pos@ret^0,c
  1419   001E50                     l2082:
  1420                           
  1421                           ;ECU_Layer/LCD/ecu_lcd.c: 81:     return ret;
  1422   001E50  5054               	movf	lcd_4bit_send_data_pos@ret^0,w,c
  1423   001E52  0012               	return		;funcret
  1424   001E54                     __end_of_lcd_4bit_send_data_pos:
  1425                           	callstack 0
  1426                           
  1427 ;; *************** function _lcd_4bit_set_cursor *****************
  1428 ;; Defined at:
  1429 ;;		line 128 in file "ECU_Layer/LCD/ecu_lcd.c"
  1430 ;; Parameters:    Size  Location     Type
  1431 ;;  lcd             2   18[COMRAM] PTR const struct .
  1432 ;;		 -> lcd(6), 
  1433 ;;  row             1   20[COMRAM] unsigned char 
  1434 ;;  column          1   21[COMRAM] unsigned char 
  1435 ;; Auto vars:     Size  Location     Type
  1436 ;;  ret             1   24[COMRAM] unsigned char 
  1437 ;; Return value:  Size  Location     Type
  1438 ;;                  1    wreg      unsigned char 
  1439 ;; Registers used:
  1440 ;;		wreg, fsr2l, fsr2h, status,2, status,0, prodl, prodh, cstack
  1441 ;; Tracked objects:
  1442 ;;		On entry : 0/0
  1443 ;;		On exit  : 0/0
  1444 ;;		Unchanged: 0/0
  1445 ;; Data sizes:     COMRAM   BANK0   BANK1   BANK2   BANK3   BANK4   BANK5   BANK6   BANK7   BANK8   BANK9  BANK10  BANK1
      +1  BANK12  BANK13  BANK14  BANK15
  1446 ;;      Params:         4       0       0       0       0       0       0       0       0       0       0       0       
      +0       0       0       0       0
  1447 ;;      Locals:         1       0       0       0       0       0       0       0       0       0       0       0       
      +0       0       0       0       0
  1448 ;;      Temps:          2       0       0       0       0       0       0       0       0       0       0       0       
      +0       0       0       0       0
  1449 ;;      Totals:         7       0       0       0       0       0       0       0       0       0       0       0       
      +0       0       0       0       0
  1450 ;;Total ram usage:        7 bytes
  1451 ;; Hardware stack levels used: 1
  1452 ;; Hardware stack levels required when called: 3
  1453 ;; This function calls:
  1454 ;;		_lcd_4bit_send_command
  1455 ;; This function is called by:
  1456 ;;		_lcd_4bit_send_data_pos
  1457 ;;		_lcd_4bit_send_string_pos
  1458 ;; This function uses a non-reentrant model
  1459 ;;
  1460                           
  1461                           	psect	text5
  1462   00175A                     __ptext5:
  1463                           	callstack 0
  1464   00175A                     _lcd_4bit_set_cursor:
  1465                           	callstack 26
  1466   00175A                     
  1467                           ;ECU_Layer/LCD/ecu_lcd.c: 129:     std_ReturnType ret = (std_ReturnType)0x01;
  1468   00175A  0E01               	movlw	1
  1469   00175C  6E4E               	movwf	lcd_4bit_set_cursor@ret^0,c
  1470   00175E                     
  1471                           ;ECU_Layer/LCD/ecu_lcd.c: 130:     column--;
  1472   00175E  064B               	decf	lcd_4bit_set_cursor@column^0,f,c
  1473   001760                     
  1474                           ;ECU_Layer/LCD/ecu_lcd.c: 131:     if(lcd == ((void*)0)){
  1475   001760  5048               	movf	lcd_4bit_set_cursor@lcd^0,w,c
  1476   001762  1049               	iorwf	(lcd_4bit_set_cursor@lcd+1)^0,w,c
  1477   001764  A4D8               	btfss	status,2,c
  1478   001766  EFB7  F00B         	goto	u1031
  1479   00176A  EFB9  F00B         	goto	u1030
  1480   00176E                     u1031:
  1481   00176E  EFED  F00B         	goto	l2048
  1482   001772                     u1030:
  1483   001772                     
  1484                           ;ECU_Layer/LCD/ecu_lcd.c: 132:         ret = (std_ReturnType)0x00;
  1485   001772  0E00               	movlw	0
  1486   001774  6E4E               	movwf	lcd_4bit_set_cursor@ret^0,c
  1487   001776  EFED  F00B         	goto	l2048
  1488   00177A                     l2040:
  1489   00177A  C048  F044         	movff	lcd_4bit_set_cursor@lcd,lcd_4bit_send_command@lcd
  1490   00177E  C049  F045         	movff	lcd_4bit_set_cursor@lcd+1,lcd_4bit_send_command@lcd+1
  1491   001782  504B               	movf	lcd_4bit_set_cursor@column^0,w,c
  1492   001784  0F80               	addlw	128
  1493   001786  6E46               	movwf	lcd_4bit_send_command@command^0,c
  1494   001788  ECE5  F00D         	call	_lcd_4bit_send_command	;wreg free
  1495   00178C  6E4E               	movwf	lcd_4bit_set_cursor@ret^0,c
  1496                           
  1497                           ;ECU_Layer/LCD/ecu_lcd.c: 136:         break;
  1498   00178E  EF0A  F00C         	goto	l2050
  1499   001792                     l2042:
  1500   001792  C048  F044         	movff	lcd_4bit_set_cursor@lcd,lcd_4bit_send_command@lcd
  1501   001796  C049  F045         	movff	lcd_4bit_set_cursor@lcd+1,lcd_4bit_send_command@lcd+1
  1502   00179A  504B               	movf	lcd_4bit_set_cursor@column^0,w,c
  1503   00179C  0FC0               	addlw	192
  1504   00179E  6E46               	movwf	lcd_4bit_send_command@command^0,c
  1505   0017A0  ECE5  F00D         	call	_lcd_4bit_send_command	;wreg free
  1506   0017A4  6E4E               	movwf	lcd_4bit_set_cursor@ret^0,c
  1507                           
  1508                           ;ECU_Layer/LCD/ecu_lcd.c: 138:         break;
  1509   0017A6  EF0A  F00C         	goto	l2050
  1510   0017AA                     l2044:
  1511   0017AA  C048  F044         	movff	lcd_4bit_set_cursor@lcd,lcd_4bit_send_command@lcd
  1512   0017AE  C049  F045         	movff	lcd_4bit_set_cursor@lcd+1,lcd_4bit_send_command@lcd+1
  1513   0017B2  504B               	movf	lcd_4bit_set_cursor@column^0,w,c
  1514   0017B4  0F94               	addlw	148
  1515   0017B6  6E46               	movwf	lcd_4bit_send_command@command^0,c
  1516   0017B8  ECE5  F00D         	call	_lcd_4bit_send_command	;wreg free
  1517   0017BC  6E4E               	movwf	lcd_4bit_set_cursor@ret^0,c
  1518                           
  1519                           ;ECU_Layer/LCD/ecu_lcd.c: 140:         break;
  1520   0017BE  EF0A  F00C         	goto	l2050
  1521   0017C2                     l2046:
  1522   0017C2  C048  F044         	movff	lcd_4bit_set_cursor@lcd,lcd_4bit_send_command@lcd
  1523   0017C6  C049  F045         	movff	lcd_4bit_set_cursor@lcd+1,lcd_4bit_send_command@lcd+1
  1524   0017CA  504B               	movf	lcd_4bit_set_cursor@column^0,w,c
  1525   0017CC  0FD4               	addlw	212
  1526   0017CE  6E46               	movwf	lcd_4bit_send_command@command^0,c
  1527   0017D0  ECE5  F00D         	call	_lcd_4bit_send_command	;wreg free
  1528   0017D4  6E4E               	movwf	lcd_4bit_set_cursor@ret^0,c
  1529                           
  1530                           ;ECU_Layer/LCD/ecu_lcd.c: 142:         break;
  1531   0017D6  EF0A  F00C         	goto	l2050
  1532   0017DA                     l2048:
  1533   0017DA  504A               	movf	lcd_4bit_set_cursor@row^0,w,c
  1534   0017DC  6E4C               	movwf	??_lcd_4bit_set_cursor^0,c
  1535   0017DE  6A4D               	clrf	(??_lcd_4bit_set_cursor+1)^0,c
  1536                           
  1537                           ; Switch on 2 bytes has been partitioned into a top level switch of size 1, and 1 sub-sw
      +                          itches
  1538                           ; Switch size 1, requested type "simple"
  1539                           ; Number of cases is 1, Range of values is 0 to 0
  1540                           ; switch strategies available:
  1541                           ; Name         Instructions Cycles
  1542                           ; simple_byte            4     3 (average)
  1543                           ;	Chosen strategy is simple_byte
  1544   0017E0  504D               	movf	(??_lcd_4bit_set_cursor+1)^0,w,c
  1545   0017E2  0A00               	xorlw	0	; case 0
  1546   0017E4  B4D8               	btfsc	status,2,c
  1547   0017E6  EFF7  F00B         	goto	l2278
  1548   0017EA  EF0A  F00C         	goto	l2050
  1549   0017EE                     l2278:
  1550                           
  1551                           ; Switch size 1, requested type "simple"
  1552                           ; Number of cases is 4, Range of values is 1 to 4
  1553                           ; switch strategies available:
  1554                           ; Name         Instructions Cycles
  1555                           ; simple_byte           13     7 (average)
  1556                           ;	Chosen strategy is simple_byte
  1557   0017EE  504C               	movf	??_lcd_4bit_set_cursor^0,w,c
  1558   0017F0  0A01               	xorlw	1	; case 1
  1559   0017F2  B4D8               	btfsc	status,2,c
  1560   0017F4  EFBD  F00B         	goto	l2040
  1561   0017F8  0A03               	xorlw	3	; case 2
  1562   0017FA  B4D8               	btfsc	status,2,c
  1563   0017FC  EFC9  F00B         	goto	l2042
  1564   001800  0A01               	xorlw	1	; case 3
  1565   001802  B4D8               	btfsc	status,2,c
  1566   001804  EFD5  F00B         	goto	l2044
  1567   001808  0A07               	xorlw	7	; case 4
  1568   00180A  B4D8               	btfsc	status,2,c
  1569   00180C  EFE1  F00B         	goto	l2046
  1570   001810  EF0A  F00C         	goto	l2050
  1571   001814                     l2050:
  1572                           
  1573                           ;ECU_Layer/LCD/ecu_lcd.c: 146:     return ret;
  1574   001814  504E               	movf	lcd_4bit_set_cursor@ret^0,w,c
  1575   001816  0012               	return		;funcret
  1576   001818                     __end_of_lcd_4bit_set_cursor:
  1577                           	callstack 0
  1578                           
  1579 ;; *************** function _lcd_4bit_send_char_data *****************
  1580 ;; Defined at:
  1581 ;;		line 57 in file "ECU_Layer/LCD/ecu_lcd.c"
  1582 ;; Parameters:    Size  Location     Type
  1583 ;;  lcd             2   14[COMRAM] PTR const struct .
  1584 ;;		 -> lcd(6), 
  1585 ;;  data            1   16[COMRAM] unsigned char 
  1586 ;; Auto vars:     Size  Location     Type
  1587 ;;  ret             1   17[COMRAM] unsigned char 
  1588 ;; Return value:  Size  Location     Type
  1589 ;;                  1    wreg      unsigned char 
  1590 ;; Registers used:
  1591 ;;		wreg, fsr2l, fsr2h, status,2, status,0, prodl, prodh, cstack
  1592 ;; Tracked objects:
  1593 ;;		On entry : 0/0
  1594 ;;		On exit  : 0/0
  1595 ;;		Unchanged: 0/0
  1596 ;; Data sizes:     COMRAM   BANK0   BANK1   BANK2   BANK3   BANK4   BANK5   BANK6   BANK7   BANK8   BANK9  BANK10  BANK1
      +1  BANK12  BANK13  BANK14  BANK15
  1597 ;;      Params:         3       0       0       0       0       0       0       0       0       0       0       0       
      +0       0       0       0       0
  1598 ;;      Locals:         1       0       0       0       0       0       0       0       0       0       0       0       
      +0       0       0       0       0
  1599 ;;      Temps:          0       0       0       0       0       0       0       0       0       0       0       0       
      +0       0       0       0       0
  1600 ;;      Totals:         4       0       0       0       0       0       0       0       0       0       0       0       
      +0       0       0       0       0
  1601 ;;Total ram usage:        4 bytes
  1602 ;; Hardware stack levels used: 1
  1603 ;; Hardware stack levels required when called: 2
  1604 ;; This function calls:
  1605 ;;		_gpio_pin_write_logic
  1606 ;;		_lcd_4bit_send_enable
  1607 ;;		_lcd_send_4bits
  1608 ;; This function is called by:
  1609 ;;		_lcd_4bit_send_data_pos
  1610 ;;		_lcd_4bit_send_string
  1611 ;;		_lcd_4bit_send_string_pos
  1612 ;; This function uses a non-reentrant model
  1613 ;;
  1614                           
  1615                           	psect	text6
  1616   001B58                     __ptext6:
  1617                           	callstack 0
  1618   001B58                     _lcd_4bit_send_char_data:
  1619                           	callstack 27
  1620   001B58                     
  1621                           ;ECU_Layer/LCD/ecu_lcd.c: 59:     if(lcd == ((void*)0)){
  1622   001B58  5044               	movf	lcd_4bit_send_char_data@lcd^0,w,c
  1623   001B5A  1045               	iorwf	(lcd_4bit_send_char_data@lcd+1)^0,w,c
  1624   001B5C  A4D8               	btfss	status,2,c
  1625   001B5E  EFB3  F00D         	goto	u1021
  1626   001B62  EFB5  F00D         	goto	u1020
  1627   001B66                     u1021:
  1628   001B66  EFB9  F00D         	goto	l2026
  1629   001B6A                     u1020:
  1630   001B6A                     
  1631                           ;ECU_Layer/LCD/ecu_lcd.c: 60:         ret = (std_ReturnType)0x00;
  1632   001B6A  0E00               	movlw	0
  1633   001B6C  6E47               	movwf	lcd_4bit_send_char_data@ret^0,c
  1634                           
  1635                           ;ECU_Layer/LCD/ecu_lcd.c: 61:     }
  1636   001B6E  EFE3  F00D         	goto	l2028
  1637   001B72                     l2026:
  1638                           
  1639                           ;ECU_Layer/LCD/ecu_lcd.c: 63:         ret = gpio_pin_write_logic(&(lcd->lcd_rs) , GPIO_H
      +                          IGH);
  1640   001B72  C044  F036         	movff	lcd_4bit_send_char_data@lcd,gpio_pin_write_logic@pin_config
  1641   001B76  C045  F037         	movff	lcd_4bit_send_char_data@lcd+1,gpio_pin_write_logic@pin_config+1
  1642   001B7A  0E01               	movlw	1
  1643   001B7C  6E38               	movwf	gpio_pin_write_logic@logic^0,c
  1644   001B7E  EC04  F00A         	call	_gpio_pin_write_logic	;wreg free
  1645   001B82  6E47               	movwf	lcd_4bit_send_char_data@ret^0,c
  1646                           
  1647                           ;ECU_Layer/LCD/ecu_lcd.c: 64:         ret = lcd_send_4bits(lcd , (data >> 4));
  1648   001B84  C044  F040         	movff	lcd_4bit_send_char_data@lcd,lcd_send_4bits@lcd
  1649   001B88  C045  F041         	movff	lcd_4bit_send_char_data@lcd+1,lcd_send_4bits@lcd+1
  1650   001B8C  3846               	swapf	lcd_4bit_send_char_data@data^0,w,c
  1651   001B8E  0B0F               	andlw	15
  1652   001B90  6E42               	movwf	lcd_send_4bits@data_command^0,c
  1653   001B92  ECF2  F00C         	call	_lcd_send_4bits	;wreg free
  1654   001B96  6E47               	movwf	lcd_4bit_send_char_data@ret^0,c
  1655                           
  1656                           ;ECU_Layer/LCD/ecu_lcd.c: 65:         ret = lcd_4bit_send_enable(lcd);
  1657   001B98  C044  F040         	movff	lcd_4bit_send_char_data@lcd,lcd_4bit_send_enable@lcd
  1658   001B9C  C045  F041         	movff	lcd_4bit_send_char_data@lcd+1,lcd_4bit_send_enable@lcd+1
  1659   001BA0  ECBB  F00E         	call	_lcd_4bit_send_enable	;wreg free
  1660   001BA4  6E47               	movwf	lcd_4bit_send_char_data@ret^0,c
  1661                           
  1662                           ;ECU_Layer/LCD/ecu_lcd.c: 66:         ret = lcd_send_4bits(lcd , data);
  1663   001BA6  C044  F040         	movff	lcd_4bit_send_char_data@lcd,lcd_send_4bits@lcd
  1664   001BAA  C045  F041         	movff	lcd_4bit_send_char_data@lcd+1,lcd_send_4bits@lcd+1
  1665   001BAE  C046  F042         	movff	lcd_4bit_send_char_data@data,lcd_send_4bits@data_command
  1666   001BB2  ECF2  F00C         	call	_lcd_send_4bits	;wreg free
  1667   001BB6  6E47               	movwf	lcd_4bit_send_char_data@ret^0,c
  1668                           
  1669                           ;ECU_Layer/LCD/ecu_lcd.c: 67:         ret = lcd_4bit_send_enable(lcd);
  1670   001BB8  C044  F040         	movff	lcd_4bit_send_char_data@lcd,lcd_4bit_send_enable@lcd
  1671   001BBC  C045  F041         	movff	lcd_4bit_send_char_data@lcd+1,lcd_4bit_send_enable@lcd+1
  1672   001BC0  ECBB  F00E         	call	_lcd_4bit_send_enable	;wreg free
  1673   001BC4  6E47               	movwf	lcd_4bit_send_char_data@ret^0,c
  1674   001BC6                     l2028:
  1675                           
  1676                           ;ECU_Layer/LCD/ecu_lcd.c: 69:     return ret;
  1677   001BC6  5047               	movf	lcd_4bit_send_char_data@ret^0,w,c
  1678   001BC8  0012               	return		;funcret
  1679   001BCA                     __end_of_lcd_4bit_send_char_data:
  1680                           	callstack 0
  1681                           
  1682 ;; *************** function _keypad_read_value *****************
  1683 ;; Defined at:
  1684 ;;		line 106 in file "ECU_Layer/ecu_layer_initialize.c"
  1685 ;; Parameters:    Size  Location     Type
  1686 ;;		None
  1687 ;; Auto vars:     Size  Location     Type
  1688 ;;  secondVal       1   24[COMRAM] unsigned char 
  1689 ;;  firstVal        1   23[COMRAM] unsigned char 
  1690 ;; Return value:  Size  Location     Type
  1691 ;;                  1    wreg      unsigned char 
  1692 ;; Registers used:
  1693 ;;		wreg, fsr2l, fsr2h, status,2, status,0, tblptrl, tblptrh, tblptru, prodl, prodh, cstack
  1694 ;; Tracked objects:
  1695 ;;		On entry : 0/0
  1696 ;;		On exit  : 0/0
  1697 ;;		Unchanged: 0/0
  1698 ;; Data sizes:     COMRAM   BANK0   BANK1   BANK2   BANK3   BANK4   BANK5   BANK6   BANK7   BANK8   BANK9  BANK10  BANK1
      +1  BANK12  BANK13  BANK14  BANK15
  1699 ;;      Params:         0       0       0       0       0       0       0       0       0       0       0       0       
      +0       0       0       0       0
  1700 ;;      Locals:         2       0       0       0       0       0       0       0       0       0       0       0       
      +0       0       0       0       0
  1701 ;;      Temps:          2       0       0       0       0       0       0       0       0       0       0       0       
      +0       0       0       0       0
  1702 ;;      Totals:         4       0       0       0       0       0       0       0       0       0       0       0       
      +0       0       0       0       0
  1703 ;;Total ram usage:        4 bytes
  1704 ;; Hardware stack levels used: 1
  1705 ;; Hardware stack levels required when called: 2
  1706 ;; This function calls:
  1707 ;;		_keypad_get_value
  1708 ;; This function is called by:
  1709 ;;		_main
  1710 ;; This function uses a non-reentrant model
  1711 ;;
  1712                           
  1713                           	psect	text7
  1714   001C3C                     __ptext7:
  1715                           	callstack 0
  1716   001C3C                     _keypad_read_value:
  1717                           	callstack 28
  1718   001C3C                     
  1719                           ;ECU_Layer/ecu_layer_initialize.c: 108:     uint8 firstVal;;ECU_Layer/ecu_layer_initiali
      +                          ze.c: 110:     ret = keypad_get_value(&keypad, &firstVal);
  1720   001C3C  0E23               	movlw	low _keypad
  1721   001C3E  6E40               	movwf	keypad_get_value@keypad^0,c
  1722   001C40  0E00               	movlw	high _keypad
  1723   001C42  6E41               	movwf	(keypad_get_value@keypad+1)^0,c
  1724   001C44  0E4D               	movlw	low keypad_read_value@firstVal
  1725   001C46  6E42               	movwf	keypad_get_value@value^0,c
  1726   001C48  0E00               	movlw	high keypad_read_value@firstVal
  1727   001C4A  6E43               	movwf	(keypad_get_value@value+1)^0,c
  1728   001C4C  EC2C  F00B         	call	_keypad_get_value	;wreg free
  1729   001C50  6E22               	movwf	_ret^0,c
  1730   001C52                     
  1731                           ;ECU_Layer/ecu_layer_initialize.c: 111:     _delay((unsigned long)((150)*(8000000UL/4000
      +                          .0)));
  1732   001C52  0E02               	movlw	2
  1733   001C54  6E4C               	movwf	(??_keypad_read_value+1)^0,c
  1734   001C56  0E86               	movlw	134
  1735   001C58  6E4B               	movwf	??_keypad_read_value^0,c
  1736   001C5A  0E99               	movlw	153
  1737   001C5C                     u1267:
  1738   001C5C  2EE8               	decfsz	wreg,f,c
  1739   001C5E  D7FE               	bra	u1267
  1740   001C60  2E4B               	decfsz	??_keypad_read_value^0,f,c
  1741   001C62  D7FC               	bra	u1267
  1742   001C64  2E4C               	decfsz	(??_keypad_read_value+1)^0,f,c
  1743   001C66  D7FA               	bra	u1267
  1744   001C68  F000               	nop	
  1745   001C6A                     
  1746                           ;ECU_Layer/ecu_layer_initialize.c: 112:     if('\0' == firstVal){
  1747   001C6A  504D               	movf	keypad_read_value@firstVal^0,w,c
  1748   001C6C  A4D8               	btfss	status,2,c
  1749   001C6E  EF3B  F00E         	goto	u1111
  1750   001C72  EF3D  F00E         	goto	u1110
  1751   001C76                     u1111:
  1752   001C76  EF40  F00E         	goto	l2146
  1753   001C7A                     u1110:
  1754   001C7A                     l2142:
  1755                           
  1756                           ;ECU_Layer/ecu_layer_initialize.c: 113:         return 0;
  1757   001C7A  0E00               	movlw	0
  1758   001C7C  EF55  F00E         	goto	l214
  1759   001C80                     l2146:
  1760                           
  1761                           ;ECU_Layer/ecu_layer_initialize.c: 115:     uint8 secondVal;;ECU_Layer/ecu_layer_initial
      +                          ize.c: 116:     ret = keypad_get_value(&keypad, &secondVal);
  1762   001C80  0E23               	movlw	low _keypad
  1763   001C82  6E40               	movwf	keypad_get_value@keypad^0,c
  1764   001C84  0E00               	movlw	high _keypad
  1765   001C86  6E41               	movwf	(keypad_get_value@keypad+1)^0,c
  1766   001C88  0E4E               	movlw	low keypad_read_value@secondVal
  1767   001C8A  6E42               	movwf	keypad_get_value@value^0,c
  1768   001C8C  0E00               	movlw	high keypad_read_value@secondVal
  1769   001C8E  6E43               	movwf	(keypad_get_value@value+1)^0,c
  1770   001C90  EC2C  F00B         	call	_keypad_get_value	;wreg free
  1771   001C94  6E22               	movwf	_ret^0,c
  1772   001C96                     
  1773                           ;ECU_Layer/ecu_layer_initialize.c: 118:     if (firstVal == secondVal){
  1774   001C96  504E               	movf	keypad_read_value@secondVal^0,w,c
  1775   001C98  184D               	xorwf	keypad_read_value@firstVal^0,w,c
  1776   001C9A  A4D8               	btfss	status,2,c
  1777   001C9C  EF52  F00E         	goto	u1121
  1778   001CA0  EF54  F00E         	goto	u1120
  1779   001CA4                     u1121:
  1780   001CA4  EF3D  F00E         	goto	l2142
  1781   001CA8                     u1120:
  1782   001CA8                     
  1783                           ;ECU_Layer/ecu_layer_initialize.c: 119:         return secondVal;
  1784   001CA8  504E               	movf	keypad_read_value@secondVal^0,w,c
  1785   001CAA                     l214:
  1786   001CAA  0012               	return		;funcret
  1787   001CAC                     __end_of_keypad_read_value:
  1788                           	callstack 0
  1789                           
  1790 ;; *************** function _keypad_get_value *****************
  1791 ;; Defined at:
  1792 ;;		line 48 in file "ECU_Layer/Keypad/ecu_keypad.c"
  1793 ;; Parameters:    Size  Location     Type
  1794 ;;  keypad          2   10[COMRAM] PTR const struct .
  1795 ;;		 -> keypad(7), 
  1796 ;;  value           2   12[COMRAM] PTR unsigned char 
  1797 ;;		 -> keypad_read_value@secondVal(1), keypad_read_value@firstVal(1), 
  1798 ;; Auto vars:     Size  Location     Type
  1799 ;;  col_counter     1   20[COMRAM] unsigned char 
  1800 ;;  row_counter2    1   18[COMRAM] unsigned char 
  1801 ;;  row_counter     1   19[COMRAM] unsigned char 
  1802 ;;  col_logic       1   17[COMRAM] unsigned char 
  1803 ;;  ret             1   16[COMRAM] unsigned char 
  1804 ;; Return value:  Size  Location     Type
  1805 ;;                  1    wreg      unsigned char 
  1806 ;; Registers used:
  1807 ;;		wreg, fsr2l, fsr2h, status,2, status,0, tblptrl, tblptrh, tblptru, prodl, prodh, cstack
  1808 ;; Tracked objects:
  1809 ;;		On entry : 0/0
  1810 ;;		On exit  : 0/0
  1811 ;;		Unchanged: 0/0
  1812 ;; Data sizes:     COMRAM   BANK0   BANK1   BANK2   BANK3   BANK4   BANK5   BANK6   BANK7   BANK8   BANK9  BANK10  BANK1
      +1  BANK12  BANK13  BANK14  BANK15
  1813 ;;      Params:         4       0       0       0       0       0       0       0       0       0       0       0       
      +0       0       0       0       0
  1814 ;;      Locals:         5       0       0       0       0       0       0       0       0       0       0       0       
      +0       0       0       0       0
  1815 ;;      Temps:          2       0       0       0       0       0       0       0       0       0       0       0       
      +0       0       0       0       0
  1816 ;;      Totals:        11       0       0       0       0       0       0       0       0       0       0       0       
      +0       0       0       0       0
  1817 ;;Total ram usage:       11 bytes
  1818 ;; Hardware stack levels used: 1
  1819 ;; Hardware stack levels required when called: 1
  1820 ;; This function calls:
  1821 ;;		_gpio_pin_read_logic
  1822 ;;		_gpio_pin_write_logic
  1823 ;; This function is called by:
  1824 ;;		_keypad_read_value
  1825 ;; This function uses a non-reentrant model
  1826 ;;
  1827                           
  1828                           	psect	text8
  1829   001658                     __ptext8:
  1830                           	callstack 0
  1831   001658                     _keypad_get_value:
  1832                           	callstack 28
  1833   001658                     
  1834                           ;ECU_Layer/Keypad/ecu_keypad.c: 50:     uint8 col_logic = 0;
  1835   001658  0E00               	movlw	0
  1836   00165A  6E47               	movwf	keypad_get_value@col_logic^0,c
  1837   00165C                     
  1838                           ;ECU_Layer/Keypad/ecu_keypad.c: 51:     if((keypad == ((void*)0)) || (value == ((void*)0
      +                          ))){
  1839   00165C  5040               	movf	keypad_get_value@keypad^0,w,c
  1840   00165E  1041               	iorwf	(keypad_get_value@keypad+1)^0,w,c
  1841   001660  B4D8               	btfsc	status,2,c
  1842   001662  EF35  F00B         	goto	u961
  1843   001666  EF37  F00B         	goto	u960
  1844   00166A                     u961:
  1845   00166A  EF40  F00B         	goto	l1974
  1846   00166E                     u960:
  1847   00166E  5042               	movf	keypad_get_value@value^0,w,c
  1848   001670  1043               	iorwf	(keypad_get_value@value+1)^0,w,c
  1849   001672  A4D8               	btfss	status,2,c
  1850   001674  EF3E  F00B         	goto	u971
  1851   001678  EF40  F00B         	goto	u970
  1852   00167C                     u971:
  1853   00167C  EF44  F00B         	goto	l1976
  1854   001680                     u970:
  1855   001680                     l1974:
  1856                           
  1857                           ;ECU_Layer/Keypad/ecu_keypad.c: 52:         ret = (std_ReturnType)0x00;
  1858   001680  0E00               	movlw	0
  1859   001682  6E46               	movwf	keypad_get_value@ret^0,c
  1860                           
  1861                           ;ECU_Layer/Keypad/ecu_keypad.c: 53:     }
  1862   001684  EFAB  F00B         	goto	l2016
  1863   001688                     l1976:
  1864                           
  1865                           ;ECU_Layer/Keypad/ecu_keypad.c: 55:         for(uint8 row_counter=0; row_counter < 4 ; r
      +                          ow_counter++){
  1866   001688  0E00               	movlw	0
  1867   00168A  6E49               	movwf	keypad_get_value@row_counter^0,c
  1868   00168C                     l1982:
  1869                           
  1870                           ;ECU_Layer/Keypad/ecu_keypad.c: 56:             for(uint8 row_counter2 = 0; row_counter2
      +                           < 4 ; row_counter2++){
  1871   00168C  0E00               	movlw	0
  1872   00168E  6E48               	movwf	keypad_get_value@row_counter2^0,c
  1873   001690                     l1988:
  1874   001690  5048               	movf	keypad_get_value@row_counter2^0,w,c
  1875   001692  2440               	addwf	keypad_get_value@keypad^0,w,c
  1876   001694  6E36               	movwf	gpio_pin_write_logic@pin_config^0,c
  1877   001696  0E00               	movlw	0
  1878   001698  2041               	addwfc	(keypad_get_value@keypad+1)^0,w,c
  1879   00169A  6E37               	movwf	(gpio_pin_write_logic@pin_config+1)^0,c
  1880   00169C  0E00               	movlw	0
  1881   00169E  6E38               	movwf	gpio_pin_write_logic@logic^0,c
  1882   0016A0  EC04  F00A         	call	_gpio_pin_write_logic	;wreg free
  1883   0016A4                     
  1884                           ;ECU_Layer/Keypad/ecu_keypad.c: 58:             }
  1885   0016A4  2A48               	incf	keypad_get_value@row_counter2^0,f,c
  1886   0016A6  0E03               	movlw	3
  1887   0016A8  6448               	cpfsgt	keypad_get_value@row_counter2^0,c
  1888   0016AA  EF59  F00B         	goto	u981
  1889   0016AE  EF5B  F00B         	goto	u980
  1890   0016B2                     u981:
  1891   0016B2  EF48  F00B         	goto	l1988
  1892   0016B6                     u980:
  1893   0016B6                     
  1894                           ;ECU_Layer/Keypad/ecu_keypad.c: 59:             gpio_pin_write_logic(&(keypad->keypad_ro
      +                          ws_pins[row_counter]) , GPIO_HIGH);
  1895   0016B6  5049               	movf	keypad_get_value@row_counter^0,w,c
  1896   0016B8  2440               	addwf	keypad_get_value@keypad^0,w,c
  1897   0016BA  6E36               	movwf	gpio_pin_write_logic@pin_config^0,c
  1898   0016BC  0E00               	movlw	0
  1899   0016BE  2041               	addwfc	(keypad_get_value@keypad+1)^0,w,c
  1900   0016C0  6E37               	movwf	(gpio_pin_write_logic@pin_config+1)^0,c
  1901   0016C2  0E01               	movlw	1
  1902   0016C4  6E38               	movwf	gpio_pin_write_logic@logic^0,c
  1903   0016C6  EC04  F00A         	call	_gpio_pin_write_logic	;wreg free
  1904   0016CA                     
  1905                           ;ECU_Layer/Keypad/ecu_keypad.c: 60:             for(uint8 col_counter = 0 ; col_counter 
      +                          < 3 ; col_counter++){
  1906   0016CA  0E00               	movlw	0
  1907   0016CC  6E4A               	movwf	keypad_get_value@col_counter^0,c
  1908   0016CE                     l2002:
  1909                           
  1910                           ;ECU_Layer/Keypad/ecu_keypad.c: 61:                  ret = gpio_pin_read_logic(&(keypad-
      +                          >keypad_columns_pins[col_counter]),&col_logic);
  1911   0016CE  504A               	movf	keypad_get_value@col_counter^0,w,c
  1912   0016D0  2440               	addwf	keypad_get_value@keypad^0,w,c
  1913   0016D2  6E44               	movwf	??_keypad_get_value^0,c
  1914   0016D4  0E00               	movlw	0
  1915   0016D6  2041               	addwfc	(keypad_get_value@keypad+1)^0,w,c
  1916   0016D8  6E45               	movwf	(??_keypad_get_value+1)^0,c
  1917   0016DA  0E04               	movlw	4
  1918   0016DC  2444               	addwf	??_keypad_get_value^0,w,c
  1919   0016DE  6E36               	movwf	gpio_pin_read_logic@pin_config^0,c
  1920   0016E0  0E00               	movlw	0
  1921   0016E2  2045               	addwfc	(??_keypad_get_value+1)^0,w,c
  1922   0016E4  6E37               	movwf	(gpio_pin_read_logic@pin_config+1)^0,c
  1923   0016E6  0E47               	movlw	low keypad_get_value@col_logic
  1924   0016E8  6E38               	movwf	gpio_pin_read_logic@logic^0,c
  1925   0016EA  0E00               	movlw	high keypad_get_value@col_logic
  1926   0016EC  6E39               	movwf	(gpio_pin_read_logic@logic+1)^0,c
  1927   0016EE  EC0C  F00C         	call	_gpio_pin_read_logic	;wreg free
  1928   0016F2  6E46               	movwf	keypad_get_value@ret^0,c
  1929   0016F4                     
  1930                           ;ECU_Layer/Keypad/ecu_keypad.c: 62:                  if(col_logic == GPIO_HIGH){
  1931   0016F4  0447               	decf	keypad_get_value@col_logic^0,w,c
  1932   0016F6  A4D8               	btfss	status,2,c
  1933   0016F8  EF80  F00B         	goto	u991
  1934   0016FC  EF82  F00B         	goto	u990
  1935   001700                     u991:
  1936   001700  EF99  F00B         	goto	l2008
  1937   001704                     u990:
  1938   001704                     
  1939                           ;ECU_Layer/Keypad/ecu_keypad.c: 63:                      *value = btn_values[row_counter
      +                          ][col_counter];
  1940   001704  5049               	movf	keypad_get_value@row_counter^0,w,c
  1941   001706  0D03               	mullw	3
  1942   001708  0E01               	movlw	low _btn_values
  1943   00170A  24F3               	addwf	243,w,c
  1944   00170C  6E44               	movwf	??_keypad_get_value^0,c
  1945   00170E  0E10               	movlw	high _btn_values
  1946   001710  20F4               	addwfc	prodh,w,c
  1947   001712  6E45               	movwf	(??_keypad_get_value+1)^0,c
  1948   001714  504A               	movf	keypad_get_value@col_counter^0,w,c
  1949   001716  2644               	addwf	??_keypad_get_value^0,f,c
  1950   001718  0E00               	movlw	0
  1951   00171A  2245               	addwfc	(??_keypad_get_value+1)^0,f,c
  1952   00171C  C044  FFF6         	movff	??_keypad_get_value,tblptrl
  1953   001720  C045  FFF7         	movff	??_keypad_get_value+1,tblptrh
  1954   001724                     	if	0	;tblptru may be non-zero
  1955   001724                     	endif
  1956   001724                     	if	0	;tblptru may be non-zero
  1957   001724                     	endif
  1958   001724  C042  FFD9         	movff	keypad_get_value@value,fsr2l
  1959   001728  C043  FFDA         	movff	keypad_get_value@value+1,fsr2h
  1960   00172C  0008               	tblrd		*
  1961   00172E  CFF5 FFDF          	movff	tablat,indf2
  1962   001732                     l2008:
  1963                           
  1964                           ;ECU_Layer/Keypad/ecu_keypad.c: 65:             }
  1965   001732  2A4A               	incf	keypad_get_value@col_counter^0,f,c
  1966   001734  0E02               	movlw	2
  1967   001736  644A               	cpfsgt	keypad_get_value@col_counter^0,c
  1968   001738  EFA0  F00B         	goto	u1001
  1969   00173C  EFA2  F00B         	goto	u1000
  1970   001740                     u1001:
  1971   001740  EF67  F00B         	goto	l2002
  1972   001744                     u1000:
  1973   001744                     
  1974                           ;ECU_Layer/Keypad/ecu_keypad.c: 66:         }
  1975   001744  2A49               	incf	keypad_get_value@row_counter^0,f,c
  1976   001746  0E03               	movlw	3
  1977   001748  6449               	cpfsgt	keypad_get_value@row_counter^0,c
  1978   00174A  EFA9  F00B         	goto	u1011
  1979   00174E  EFAB  F00B         	goto	u1010
  1980   001752                     u1011:
  1981   001752  EF46  F00B         	goto	l1982
  1982   001756                     u1010:
  1983   001756                     l2016:
  1984                           
  1985                           ;ECU_Layer/Keypad/ecu_keypad.c: 68:     return ret;
  1986   001756  5046               	movf	keypad_get_value@ret^0,w,c
  1987   001758  0012               	return		;funcret
  1988   00175A                     __end_of_keypad_get_value:
  1989                           	callstack 0
  1990                           
  1991 ;; *************** function _gpio_pin_read_logic *****************
  1992 ;; Defined at:
  1993 ;;		line 103 in file "MCAL_Layer/GPIO/hal_gpio.c"
  1994 ;; Parameters:    Size  Location     Type
  1995 ;;  pin_config      2    0[COMRAM] PTR const struct .
  1996 ;;		 -> keypad.keypad_columns_pins(3), keypad(7), 
  1997 ;;  logic           2    2[COMRAM] PTR enum E2968
  1998 ;;		 -> keypad_get_value@col_logic(1), 
  1999 ;; Auto vars:     Size  Location     Type
  2000 ;;  ret             1    9[COMRAM] unsigned char 
  2001 ;; Return value:  Size  Location     Type
  2002 ;;                  1    wreg      unsigned char 
  2003 ;; Registers used:
  2004 ;;		wreg, fsr2l, fsr2h, status,2, status,0, prodl, prodh
  2005 ;; Tracked objects:
  2006 ;;		On entry : 0/0
  2007 ;;		On exit  : 0/0
  2008 ;;		Unchanged: 0/0
  2009 ;; Data sizes:     COMRAM   BANK0   BANK1   BANK2   BANK3   BANK4   BANK5   BANK6   BANK7   BANK8   BANK9  BANK10  BANK1
      +1  BANK12  BANK13  BANK14  BANK15
  2010 ;;      Params:         4       0       0       0       0       0       0       0       0       0       0       0       
      +0       0       0       0       0
  2011 ;;      Locals:         1       0       0       0       0       0       0       0       0       0       0       0       
      +0       0       0       0       0
  2012 ;;      Temps:          5       0       0       0       0       0       0       0       0       0       0       0       
      +0       0       0       0       0
  2013 ;;      Totals:        10       0       0       0       0       0       0       0       0       0       0       0       
      +0       0       0       0       0
  2014 ;;Total ram usage:       10 bytes
  2015 ;; Hardware stack levels used: 1
  2016 ;; This function calls:
  2017 ;;		Nothing
  2018 ;; This function is called by:
  2019 ;;		_keypad_get_value
  2020 ;; This function uses a non-reentrant model
  2021 ;;
  2022                           
  2023                           	psect	text9
  2024   001818                     __ptext9:
  2025                           	callstack 0
  2026   001818                     _gpio_pin_read_logic:
  2027                           	callstack 28
  2028   001818                     
  2029                           ;MCAL_Layer/GPIO/hal_gpio.c: 104:     std_ReturnType ret = (std_ReturnType)0x01;
  2030   001818  0E01               	movlw	1
  2031   00181A  6E3F               	movwf	gpio_pin_read_logic@ret^0,c
  2032   00181C                     
  2033                           ;MCAL_Layer/GPIO/hal_gpio.c: 105:     if(pin_config == ((void*)0) || logic == ((void*)0)
      +                           || pin_config->pin > 8 -1){
  2034   00181C  5036               	movf	gpio_pin_read_logic@pin_config^0,w,c
  2035   00181E  1037               	iorwf	(gpio_pin_read_logic@pin_config+1)^0,w,c
  2036   001820  B4D8               	btfsc	status,2,c
  2037   001822  EF15  F00C         	goto	u891
  2038   001826  EF17  F00C         	goto	u890
  2039   00182A                     u891:
  2040   00182A  EF31  F00C         	goto	l1898
  2041   00182E                     u890:
  2042   00182E  5038               	movf	gpio_pin_read_logic@logic^0,w,c
  2043   001830  1039               	iorwf	(gpio_pin_read_logic@logic+1)^0,w,c
  2044   001832  B4D8               	btfsc	status,2,c
  2045   001834  EF1E  F00C         	goto	u901
  2046   001838  EF20  F00C         	goto	u900
  2047   00183C                     u901:
  2048   00183C  EF31  F00C         	goto	l1898
  2049   001840                     u900:
  2050   001840  C036  FFD9         	movff	gpio_pin_read_logic@pin_config,fsr2l
  2051   001844  C037  FFDA         	movff	gpio_pin_read_logic@pin_config+1,fsr2h
  2052   001848  30DF               	rrcf	223,w,c
  2053   00184A  32E8               	rrcf	wreg,f,c
  2054   00184C  32E8               	rrcf	wreg,f,c
  2055   00184E  0B07               	andlw	7
  2056   001850  6E3A               	movwf	??_gpio_pin_read_logic^0,c
  2057   001852  0E07               	movlw	7
  2058   001854  643A               	cpfsgt	??_gpio_pin_read_logic^0,c
  2059   001856  EF2F  F00C         	goto	u911
  2060   00185A  EF31  F00C         	goto	u910
  2061   00185E                     u911:
  2062   00185E  EF35  F00C         	goto	l1900
  2063   001862                     u910:
  2064   001862                     l1898:
  2065                           
  2066                           ;MCAL_Layer/GPIO/hal_gpio.c: 106:         ret = (std_ReturnType)0x00;
  2067   001862  0E00               	movlw	0
  2068   001864  6E3F               	movwf	gpio_pin_read_logic@ret^0,c
  2069                           
  2070                           ;MCAL_Layer/GPIO/hal_gpio.c: 107:     }
  2071   001866  EF66  F00C         	goto	l1902
  2072   00186A                     l1900:
  2073                           
  2074                           ;MCAL_Layer/GPIO/hal_gpio.c: 109:         *logic = ((*port_register[pin_config->port] >>
      +                           pin_config->pin) & (uint8)1 );
  2075   00186A  C036  FFD9         	movff	gpio_pin_read_logic@pin_config,fsr2l
  2076   00186E  C037  FFDA         	movff	gpio_pin_read_logic@pin_config+1,fsr2h
  2077   001872  30DF               	rrcf	223,w,c
  2078   001874  32E8               	rrcf	wreg,f,c
  2079   001876  32E8               	rrcf	wreg,f,c
  2080   001878  0B07               	andlw	7
  2081   00187A  6E3A               	movwf	??_gpio_pin_read_logic^0,c
  2082   00187C  C036  FFD9         	movff	gpio_pin_read_logic@pin_config,fsr2l
  2083   001880  C037  FFDA         	movff	gpio_pin_read_logic@pin_config+1,fsr2h
  2084   001884  50DF               	movf	223,w,c
  2085   001886  0B07               	andlw	7
  2086   001888  6E3B               	movwf	(??_gpio_pin_read_logic+1)^0,c
  2087   00188A  503B               	movf	(??_gpio_pin_read_logic+1)^0,w,c
  2088   00188C  0D02               	mullw	2
  2089   00188E  0E01               	movlw	low _port_register
  2090   001890  24F3               	addwf	243,w,c
  2091   001892  6ED9               	movwf	fsr2l,c
  2092   001894  0E00               	movlw	high _port_register
  2093   001896  20F4               	addwfc	prodh,w,c
  2094   001898  6EDA               	movwf	fsr2h,c
  2095   00189A  CFDE F03C          	movff	postinc2,??_gpio_pin_read_logic+2
  2096   00189E  CFDD F03D          	movff	postdec2,??_gpio_pin_read_logic+3
  2097   0018A2  C03C  FFD9         	movff	??_gpio_pin_read_logic+2,fsr2l
  2098   0018A6  C03D  FFDA         	movff	??_gpio_pin_read_logic+3,fsr2h
  2099   0018AA  50DF               	movf	indf2,w,c
  2100   0018AC  6E3E               	movwf	(??_gpio_pin_read_logic+4)^0,c
  2101   0018AE  2A3A               	incf	??_gpio_pin_read_logic^0,f,c
  2102   0018B0  EF5C  F00C         	goto	u924
  2103   0018B4                     u925:
  2104   0018B4  90D8               	bcf	status,0,c
  2105   0018B6  323E               	rrcf	(??_gpio_pin_read_logic+4)^0,f,c
  2106   0018B8                     u924:
  2107   0018B8  2E3A               	decfsz	??_gpio_pin_read_logic^0,f,c
  2108   0018BA  EF5A  F00C         	goto	u925
  2109   0018BE  503E               	movf	(??_gpio_pin_read_logic+4)^0,w,c
  2110   0018C0  0B01               	andlw	1
  2111   0018C2  C038  FFD9         	movff	gpio_pin_read_logic@logic,fsr2l
  2112   0018C6  C039  FFDA         	movff	gpio_pin_read_logic@logic+1,fsr2h
  2113   0018CA  6EDF               	movwf	indf2,c
  2114   0018CC                     l1902:
  2115                           
  2116                           ;MCAL_Layer/GPIO/hal_gpio.c: 111:     return ret;
  2117   0018CC  503F               	movf	gpio_pin_read_logic@ret^0,w,c
  2118   0018CE  0012               	return		;funcret
  2119   0018D0                     __end_of_gpio_pin_read_logic:
  2120                           	callstack 0
  2121                           
  2122 ;; *************** function _dc_motor_move_right *****************
  2123 ;; Defined at:
  2124 ;;		line 32 in file "ECU_Layer/DC_Motor/ecu_dc_motor.c"
  2125 ;; Parameters:    Size  Location     Type
  2126 ;;  motor           2   10[COMRAM] PTR const struct .
  2127 ;;		 -> motor(2), 
  2128 ;; Auto vars:     Size  Location     Type
  2129 ;;  ret             1   12[COMRAM] unsigned char 
  2130 ;; Return value:  Size  Location     Type
  2131 ;;                  1    wreg      unsigned char 
  2132 ;; Registers used:
  2133 ;;		wreg, fsr2l, fsr2h, status,2, status,0, prodl, prodh, cstack
  2134 ;; Tracked objects:
  2135 ;;		On entry : 0/0
  2136 ;;		On exit  : 0/0
  2137 ;;		Unchanged: 0/0
  2138 ;; Data sizes:     COMRAM   BANK0   BANK1   BANK2   BANK3   BANK4   BANK5   BANK6   BANK7   BANK8   BANK9  BANK10  BANK1
      +1  BANK12  BANK13  BANK14  BANK15
  2139 ;;      Params:         2       0       0       0       0       0       0       0       0       0       0       0       
      +0       0       0       0       0
  2140 ;;      Locals:         1       0       0       0       0       0       0       0       0       0       0       0       
      +0       0       0       0       0
  2141 ;;      Temps:          0       0       0       0       0       0       0       0       0       0       0       0       
      +0       0       0       0       0
  2142 ;;      Totals:         3       0       0       0       0       0       0       0       0       0       0       0       
      +0       0       0       0       0
  2143 ;;Total ram usage:        3 bytes
  2144 ;; Hardware stack levels used: 1
  2145 ;; Hardware stack levels required when called: 1
  2146 ;; This function calls:
  2147 ;;		_gpio_pin_write_logic
  2148 ;; This function is called by:
  2149 ;;		_main
  2150 ;; This function uses a non-reentrant model
  2151 ;;
  2152                           
  2153                           	psect	text10
  2154   001E54                     __ptext10:
  2155                           	callstack 0
  2156   001E54                     _dc_motor_move_right:
  2157                           	callstack 29
  2158   001E54                     
  2159                           ;ECU_Layer/DC_Motor/ecu_dc_motor.c: 34:     if(motor == ((void*)0)){
  2160   001E54  5040               	movf	dc_motor_move_right@motor^0,w,c
  2161   001E56  1041               	iorwf	(dc_motor_move_right@motor+1)^0,w,c
  2162   001E58  A4D8               	btfss	status,2,c
  2163   001E5A  EF31  F00F         	goto	u1041
  2164   001E5E  EF33  F00F         	goto	u1040
  2165   001E62                     u1041:
  2166   001E62  EF37  F00F         	goto	l2066
  2167   001E66                     u1040:
  2168   001E66                     
  2169                           ;ECU_Layer/DC_Motor/ecu_dc_motor.c: 35:         ret = (std_ReturnType)0x00;
  2170   001E66  0E00               	movlw	0
  2171   001E68  6E42               	movwf	dc_motor_move_right@ret^0,c
  2172                           
  2173                           ;ECU_Layer/DC_Motor/ecu_dc_motor.c: 36:     }
  2174   001E6A  EF4B  F00F         	goto	l2070
  2175   001E6E                     l2066:
  2176                           
  2177                           ;ECU_Layer/DC_Motor/ecu_dc_motor.c: 38:          gpio_pin_write_logic(&(motor->dc_motor[
      +                          0]) , GPIO_HIGH);
  2178   001E6E  C040  F036         	movff	dc_motor_move_right@motor,gpio_pin_write_logic@pin_config
  2179   001E72  C041  F037         	movff	dc_motor_move_right@motor+1,gpio_pin_write_logic@pin_config+1
  2180   001E76  0E01               	movlw	1
  2181   001E78  6E38               	movwf	gpio_pin_write_logic@logic^0,c
  2182   001E7A  EC04  F00A         	call	_gpio_pin_write_logic	;wreg free
  2183                           
  2184                           ;ECU_Layer/DC_Motor/ecu_dc_motor.c: 39:          gpio_pin_write_logic(&(motor->dc_motor[
      +                          1]) , GPIO_LOW);
  2185   001E7E  0E01               	movlw	1
  2186   001E80  2440               	addwf	dc_motor_move_right@motor^0,w,c
  2187   001E82  6E36               	movwf	gpio_pin_write_logic@pin_config^0,c
  2188   001E84  0E00               	movlw	0
  2189   001E86  2041               	addwfc	(dc_motor_move_right@motor+1)^0,w,c
  2190   001E88  6E37               	movwf	(gpio_pin_write_logic@pin_config+1)^0,c
  2191   001E8A  0E00               	movlw	0
  2192   001E8C  6E38               	movwf	gpio_pin_write_logic@logic^0,c
  2193   001E8E  EC04  F00A         	call	_gpio_pin_write_logic	;wreg free
  2194   001E92                     
  2195                           ;ECU_Layer/DC_Motor/ecu_dc_motor.c: 40:          ret = (std_ReturnType)0x01;
  2196   001E92  0E01               	movlw	1
  2197   001E94  6E42               	movwf	dc_motor_move_right@ret^0,c
  2198   001E96                     l2070:
  2199                           
  2200                           ;ECU_Layer/DC_Motor/ecu_dc_motor.c: 42:     return ret;
  2201   001E96  5042               	movf	dc_motor_move_right@ret^0,w,c
  2202   001E98  0012               	return		;funcret
  2203   001E9A                     __end_of_dc_motor_move_right:
  2204                           	callstack 0
  2205                           
  2206 ;; *************** function _app_intialize *****************
  2207 ;; Defined at:
  2208 ;;		line 68 in file "application.c"
  2209 ;; Parameters:    Size  Location     Type
  2210 ;;		None
  2211 ;; Auto vars:     Size  Location     Type
  2212 ;;		None
  2213 ;; Return value:  Size  Location     Type
  2214 ;;                  1    wreg      void 
  2215 ;; Registers used:
  2216 ;;		wreg, fsr2l, fsr2h, status,2, status,0, prodl, prodh, cstack
  2217 ;; Tracked objects:
  2218 ;;		On entry : 0/0
  2219 ;;		On exit  : 0/0
  2220 ;;		Unchanged: 0/0
  2221 ;; Data sizes:     COMRAM   BANK0   BANK1   BANK2   BANK3   BANK4   BANK5   BANK6   BANK7   BANK8   BANK9  BANK10  BANK1
      +1  BANK12  BANK13  BANK14  BANK15
  2222 ;;      Params:         0       0       0       0       0       0       0       0       0       0       0       0       
      +0       0       0       0       0
  2223 ;;      Locals:         0       0       0       0       0       0       0       0       0       0       0       0       
      +0       0       0       0       0
  2224 ;;      Temps:          0       0       0       0       0       0       0       0       0       0       0       0       
      +0       0       0       0       0
  2225 ;;      Totals:         0       0       0       0       0       0       0       0       0       0       0       0       
      +0       0       0       0       0
  2226 ;;Total ram usage:        0 bytes
  2227 ;; Hardware stack levels used: 1
  2228 ;; Hardware stack levels required when called: 5
  2229 ;; This function calls:
  2230 ;;		_ecu_layer_initialize
  2231 ;; This function is called by:
  2232 ;;		_main
  2233 ;; This function uses a non-reentrant model
  2234 ;;
  2235                           
  2236                           	psect	text11
  2237   001F6A                     __ptext11:
  2238                           	callstack 0
  2239   001F6A                     _app_intialize:
  2240                           	callstack 25
  2241   001F6A                     
  2242                           ;application.c: 69:     ret = ecu_layer_initialize();
  2243   001F6A  ECE3  F00E         	call	_ecu_layer_initialize	;wreg free
  2244   001F6E  6E22               	movwf	_ret^0,c
  2245   001F70  0012               	return		;funcret
  2246   001F72                     __end_of_app_intialize:
  2247                           	callstack 0
  2248                           
  2249 ;; *************** function _ecu_layer_initialize *****************
  2250 ;; Defined at:
  2251 ;;		line 96 in file "ECU_Layer/ecu_layer_initialize.c"
  2252 ;; Parameters:    Size  Location     Type
  2253 ;;		None
  2254 ;; Auto vars:     Size  Location     Type
  2255 ;;		None
  2256 ;; Return value:  Size  Location     Type
  2257 ;;                  1    wreg      unsigned char 
  2258 ;; Registers used:
  2259 ;;		wreg, fsr2l, fsr2h, status,2, status,0, prodl, prodh, cstack
  2260 ;; Tracked objects:
  2261 ;;		On entry : 0/0
  2262 ;;		On exit  : 0/0
  2263 ;;		Unchanged: 0/0
  2264 ;; Data sizes:     COMRAM   BANK0   BANK1   BANK2   BANK3   BANK4   BANK5   BANK6   BANK7   BANK8   BANK9  BANK10  BANK1
      +1  BANK12  BANK13  BANK14  BANK15
  2265 ;;      Params:         0       0       0       0       0       0       0       0       0       0       0       0       
      +0       0       0       0       0
  2266 ;;      Locals:         0       0       0       0       0       0       0       0       0       0       0       0       
      +0       0       0       0       0
  2267 ;;      Temps:          0       0       0       0       0       0       0       0       0       0       0       0       
      +0       0       0       0       0
  2268 ;;      Totals:         0       0       0       0       0       0       0       0       0       0       0       0       
      +0       0       0       0       0
  2269 ;;Total ram usage:        0 bytes
  2270 ;; Hardware stack levels used: 1
  2271 ;; Hardware stack levels required when called: 4
  2272 ;; This function calls:
  2273 ;;		_dc_motor_initialize
  2274 ;;		_keypad_initialize
  2275 ;;		_lcd_4bit_initialize
  2276 ;;		_led_initialize
  2277 ;; This function is called by:
  2278 ;;		_app_intialize
  2279 ;; This function uses a non-reentrant model
  2280 ;;
  2281                           
  2282                           	psect	text12
  2283   001DC6                     __ptext12:
  2284                           	callstack 0
  2285   001DC6                     _ecu_layer_initialize:
  2286                           	callstack 25
  2287   001DC6                     
  2288                           ;ECU_Layer/ecu_layer_initialize.c: 99:     ret = lcd_4bit_initialize(&lcd);
  2289   001DC6  0E2A               	movlw	low _lcd
  2290   001DC8  6E48               	movwf	lcd_4bit_initialize@lcd^0,c
  2291   001DCA  0E00               	movlw	high _lcd
  2292   001DCC  6E49               	movwf	(lcd_4bit_initialize@lcd+1)^0,c
  2293   001DCE  EC9A  F00A         	call	_lcd_4bit_initialize	;wreg free
  2294   001DD2  6E22               	movwf	_ret^0,c
  2295                           
  2296                           ;ECU_Layer/ecu_layer_initialize.c: 100:     ret = keypad_initialize(&keypad);
  2297   001DD4  0E23               	movlw	low _keypad
  2298   001DD6  6E44               	movwf	keypad_initialize@keypad^0,c
  2299   001DD8  0E00               	movlw	high _keypad
  2300   001DDA  6E45               	movwf	(keypad_initialize@keypad+1)^0,c
  2301   001DDC  EC36  F00D         	call	_keypad_initialize	;wreg free
  2302   001DE0  6E22               	movwf	_ret^0,c
  2303                           
  2304                           ;ECU_Layer/ecu_layer_initialize.c: 101:     ret = dc_motor_initialize(&motor);
  2305   001DE2  0E30               	movlw	low _motor
  2306   001DE4  6E44               	movwf	dc_motor_initialize@motor^0,c
  2307   001DE6  0E00               	movlw	high _motor
  2308   001DE8  6E45               	movwf	(dc_motor_initialize@motor+1)^0,c
  2309   001DEA  EC4D  F00F         	call	_dc_motor_initialize	;wreg free
  2310   001DEE  6E22               	movwf	_ret^0,c
  2311                           
  2312                           ;ECU_Layer/ecu_layer_initialize.c: 102:     ret = led_initialize(&led_green);
  2313   001DF0  0E34               	movlw	low _led_green
  2314   001DF2  6E3F               	movwf	led_initialize@led^0,c
  2315   001DF4  0E00               	movlw	high _led_green
  2316   001DF6  6E40               	movwf	(led_initialize@led+1)^0,c
  2317   001DF8  ECAE  F00C         	call	_led_initialize	;wreg free
  2318   001DFC  6E22               	movwf	_ret^0,c
  2319                           
  2320                           ;ECU_Layer/ecu_layer_initialize.c: 103:     ret = led_initialize(&led_red);
  2321   001DFE  0E32               	movlw	low _led_red
  2322   001E00  6E3F               	movwf	led_initialize@led^0,c
  2323   001E02  0E00               	movlw	high _led_red
  2324   001E04  6E40               	movwf	(led_initialize@led+1)^0,c
  2325   001E06  ECAE  F00C         	call	_led_initialize	;wreg free
  2326   001E0A  6E22               	movwf	_ret^0,c
  2327   001E0C  0012               	return		;funcret
  2328   001E0E                     __end_of_ecu_layer_initialize:
  2329                           	callstack 0
  2330                           
  2331 ;; *************** function _led_initialize *****************
  2332 ;; Defined at:
  2333 ;;		line 18 in file "ECU_Layer/LED/ecu_led.c"
  2334 ;; Parameters:    Size  Location     Type
  2335 ;;  led             2    9[COMRAM] PTR const struct .
  2336 ;;		 -> led_red(2), led_green(2), 
  2337 ;; Auto vars:     Size  Location     Type
  2338 ;;  led_pin         1   13[COMRAM] struct .
  2339 ;;  ret             1   12[COMRAM] unsigned char 
  2340 ;; Return value:  Size  Location     Type
  2341 ;;                  1    wreg      unsigned char 
  2342 ;; Registers used:
  2343 ;;		wreg, fsr2l, fsr2h, status,2, status,0, prodl, prodh, cstack
  2344 ;; Tracked objects:
  2345 ;;		On entry : 0/0
  2346 ;;		On exit  : 0/0
  2347 ;;		Unchanged: 0/0
  2348 ;; Data sizes:     COMRAM   BANK0   BANK1   BANK2   BANK3   BANK4   BANK5   BANK6   BANK7   BANK8   BANK9  BANK10  BANK1
      +1  BANK12  BANK13  BANK14  BANK15
  2349 ;;      Params:         2       0       0       0       0       0       0       0       0       0       0       0       
      +0       0       0       0       0
  2350 ;;      Locals:         2       0       0       0       0       0       0       0       0       0       0       0       
      +0       0       0       0       0
  2351 ;;      Temps:          1       0       0       0       0       0       0       0       0       0       0       0       
      +0       0       0       0       0
  2352 ;;      Totals:         5       0       0       0       0       0       0       0       0       0       0       0       
      +0       0       0       0       0
  2353 ;;Total ram usage:        5 bytes
  2354 ;; Hardware stack levels used: 1
  2355 ;; Hardware stack levels required when called: 1
  2356 ;; This function calls:
  2357 ;;		_gpio_pin_direction_initialize
  2358 ;; This function is called by:
  2359 ;;		_ecu_layer_initialize
  2360 ;; This function uses a non-reentrant model
  2361 ;;
  2362                           
  2363                           	psect	text13
  2364   00195C                     __ptext13:
  2365                           	callstack 0
  2366   00195C                     _led_initialize:
  2367                           	callstack 27
  2368   00195C                     
  2369                           ;ECU_Layer/LED/ecu_led.c: 19:     std_ReturnType ret = (std_ReturnType)0x01;
  2370   00195C  0E01               	movlw	1
  2371   00195E  6E42               	movwf	led_initialize@ret^0,c
  2372   001960                     
  2373                           ;ECU_Layer/LED/ecu_led.c: 21:     if(led == ((void*)0)){
  2374   001960  503F               	movf	led_initialize@led^0,w,c
  2375   001962  1040               	iorwf	(led_initialize@led+1)^0,w,c
  2376   001964  A4D8               	btfss	status,2,c
  2377   001966  EFB7  F00C         	goto	u951
  2378   00196A  EFB9  F00C         	goto	u950
  2379   00196E                     u951:
  2380   00196E  EFBD  F00C         	goto	l158
  2381   001972                     u950:
  2382   001972                     
  2383                           ;ECU_Layer/LED/ecu_led.c: 22:         ret = (std_ReturnType)0x00;
  2384   001972  0E00               	movlw	0
  2385   001974  6E42               	movwf	led_initialize@ret^0,c
  2386                           
  2387                           ;ECU_Layer/LED/ecu_led.c: 23:     }
  2388   001976  EFF0  F00C         	goto	l1964
  2389   00197A                     l158:
  2390                           
  2391                           ;ECU_Layer/LED/ecu_led.c: 25:     {;ECU_Layer/LED/ecu_led.c: 26:         pin_config_t le
      +                          d_pin = {
  2392   00197A  C060  F043         	movff	led_initialize@F3048,led_initialize@led_pin
  2393   00197E  C03F  FFD9         	movff	led_initialize@led,fsr2l
  2394   001982  C040  FFDA         	movff	led_initialize@led+1,fsr2h
  2395   001986  50DF               	movf	223,w,c
  2396   001988  0B0F               	andlw	15
  2397   00198A  6E41               	movwf	??_led_initialize^0,c
  2398   00198C  5043               	movf	led_initialize@led_pin^0,w,c
  2399   00198E  1841               	xorwf	??_led_initialize^0,w,c
  2400   001990  0BF8               	andlw	-8
  2401   001992  1841               	xorwf	??_led_initialize^0,w,c
  2402   001994  6E43               	movwf	led_initialize@led_pin^0,c
  2403   001996  C03F  FFD9         	movff	led_initialize@led,fsr2l
  2404   00199A  C040  FFDA         	movff	led_initialize@led+1,fsr2h
  2405   00199E  38DF               	swapf	223,w,c
  2406   0019A0  0B07               	andlw	7
  2407   0019A2  6E41               	movwf	??_led_initialize^0,c
  2408   0019A4  4641               	rlncf	??_led_initialize^0,f,c
  2409   0019A6  4641               	rlncf	??_led_initialize^0,f,c
  2410   0019A8  4641               	rlncf	??_led_initialize^0,f,c
  2411   0019AA  5043               	movf	led_initialize@led_pin^0,w,c
  2412   0019AC  1841               	xorwf	??_led_initialize^0,w,c
  2413   0019AE  0BC7               	andlw	-57
  2414   0019B0  1841               	xorwf	??_led_initialize^0,w,c
  2415   0019B2  6E43               	movwf	led_initialize@led_pin^0,c
  2416   0019B4  9C43               	bcf	led_initialize@led_pin^0,6,c
  2417   0019B6  EE20 F001          	lfsr	2,1
  2418   0019BA  503F               	movf	led_initialize@led^0,w,c
  2419   0019BC  26D9               	addwf	fsr2l,f,c
  2420   0019BE  5040               	movf	(led_initialize@led+1)^0,w,c
  2421   0019C0  22DA               	addwfc	fsr2h,f,c
  2422   0019C2  50DF               	movf	indf2,w,c
  2423   0019C4  6E41               	movwf	??_led_initialize^0,c
  2424   0019C6  3241               	rrcf	??_led_initialize^0,f,c
  2425   0019C8  3241               	rrcf	??_led_initialize^0,f,c
  2426   0019CA  5043               	movf	led_initialize@led_pin^0,w,c
  2427   0019CC  1841               	xorwf	??_led_initialize^0,w,c
  2428   0019CE  0B7F               	andlw	-129
  2429   0019D0  1841               	xorwf	??_led_initialize^0,w,c
  2430   0019D2  6E43               	movwf	led_initialize@led_pin^0,c
  2431   0019D4                     
  2432                           ;ECU_Layer/LED/ecu_led.c: 31:         gpio_pin_direction_initialize(&led_pin);
  2433   0019D4  0E43               	movlw	low led_initialize@led_pin
  2434   0019D6  6E36               	movwf	gpio_pin_direction_initialize@pin_config^0,c
  2435   0019D8  0E00               	movlw	high led_initialize@led_pin
  2436   0019DA  6E37               	movwf	(gpio_pin_direction_initialize@pin_config+1)^0,c
  2437   0019DC  EC62  F009         	call	_gpio_pin_direction_initialize	;wreg free
  2438   0019E0                     l1964:
  2439                           
  2440                           ;ECU_Layer/LED/ecu_led.c: 33:     return ret;
  2441   0019E0  5042               	movf	led_initialize@ret^0,w,c
  2442   0019E2  0012               	return		;funcret
  2443   0019E4                     __end_of_led_initialize:
  2444                           	callstack 0
  2445                           
  2446 ;; *************** function _lcd_4bit_initialize *****************
  2447 ;; Defined at:
  2448 ;;		line 14 in file "ECU_Layer/LCD/ecu_lcd.c"
  2449 ;; Parameters:    Size  Location     Type
  2450 ;;  lcd             2   18[COMRAM] PTR const struct .
  2451 ;;		 -> lcd(6), 
  2452 ;; Auto vars:     Size  Location     Type
  2453 ;;  pin             1   22[COMRAM] unsigned char 
  2454 ;;  ret             1   23[COMRAM] unsigned char 
  2455 ;; Return value:  Size  Location     Type
  2456 ;;                  1    wreg      unsigned char 
  2457 ;; Registers used:
  2458 ;;		wreg, fsr2l, fsr2h, status,2, status,0, prodl, prodh, cstack
  2459 ;; Tracked objects:
  2460 ;;		On entry : 0/0
  2461 ;;		On exit  : 0/0
  2462 ;;		Unchanged: 0/0
  2463 ;; Data sizes:     COMRAM   BANK0   BANK1   BANK2   BANK3   BANK4   BANK5   BANK6   BANK7   BANK8   BANK9  BANK10  BANK1
      +1  BANK12  BANK13  BANK14  BANK15
  2464 ;;      Params:         2       0       0       0       0       0       0       0       0       0       0       0       
      +0       0       0       0       0
  2465 ;;      Locals:         2       0       0       0       0       0       0       0       0       0       0       0       
      +0       0       0       0       0
  2466 ;;      Temps:          2       0       0       0       0       0       0       0       0       0       0       0       
      +0       0       0       0       0
  2467 ;;      Totals:         6       0       0       0       0       0       0       0       0       0       0       0       
      +0       0       0       0       0
  2468 ;;Total ram usage:        6 bytes
  2469 ;; Hardware stack levels used: 1
  2470 ;; Hardware stack levels required when called: 3
  2471 ;; This function calls:
  2472 ;;		_gpio_pin_initialize
  2473 ;;		_lcd_4bit_send_command
  2474 ;; This function is called by:
  2475 ;;		_ecu_layer_initialize
  2476 ;; This function uses a non-reentrant model
  2477 ;;
  2478                           
  2479                           	psect	text14
  2480   001534                     __ptext14:
  2481                           	callstack 0
  2482   001534                     _lcd_4bit_initialize:
  2483                           	callstack 25
  2484   001534                     
  2485                           ;ECU_Layer/LCD/ecu_lcd.c: 16:     if(lcd == ((void*)0)){
  2486   001534  5048               	movf	lcd_4bit_initialize@lcd^0,w,c
  2487   001536  1049               	iorwf	(lcd_4bit_initialize@lcd+1)^0,w,c
  2488   001538  A4D8               	btfss	status,2,c
  2489   00153A  EFA1  F00A         	goto	u931
  2490   00153E  EFA3  F00A         	goto	u930
  2491   001542                     u931:
  2492   001542  EFA7  F00A         	goto	l1912
  2493   001546                     u930:
  2494   001546                     
  2495                           ;ECU_Layer/LCD/ecu_lcd.c: 17:         ret = (std_ReturnType)0x00;
  2496   001546  0E00               	movlw	0
  2497   001548  6E4D               	movwf	lcd_4bit_initialize@ret^0,c
  2498                           
  2499                           ;ECU_Layer/LCD/ecu_lcd.c: 18:     }
  2500   00154A  EF2A  F00B         	goto	l1948
  2501   00154E                     l1912:
  2502                           
  2503                           ;ECU_Layer/LCD/ecu_lcd.c: 20:         ret = gpio_pin_initialize(&(lcd->lcd_rs));
  2504   00154E  C048  F040         	movff	lcd_4bit_initialize@lcd,gpio_pin_initialize@pin_config
  2505   001552  C049  F041         	movff	lcd_4bit_initialize@lcd+1,gpio_pin_initialize@pin_config+1
  2506   001556  EC56  F00E         	call	_gpio_pin_initialize	;wreg free
  2507   00155A  6E4D               	movwf	lcd_4bit_initialize@ret^0,c
  2508                           
  2509                           ;ECU_Layer/LCD/ecu_lcd.c: 21:         ret = gpio_pin_initialize(&(lcd->lcd_en));
  2510   00155C  0E01               	movlw	1
  2511   00155E  2448               	addwf	lcd_4bit_initialize@lcd^0,w,c
  2512   001560  6E40               	movwf	gpio_pin_initialize@pin_config^0,c
  2513   001562  0E00               	movlw	0
  2514   001564  2049               	addwfc	(lcd_4bit_initialize@lcd+1)^0,w,c
  2515   001566  6E41               	movwf	(gpio_pin_initialize@pin_config+1)^0,c
  2516   001568  EC56  F00E         	call	_gpio_pin_initialize	;wreg free
  2517   00156C  6E4D               	movwf	lcd_4bit_initialize@ret^0,c
  2518   00156E                     
  2519                           ;ECU_Layer/LCD/ecu_lcd.c: 22:         for(uint8 pin = 0 ; pin < 4 ; pin++){
  2520   00156E  0E00               	movlw	0
  2521   001570  6E4C               	movwf	lcd_4bit_initialize@pin^0,c
  2522   001572                     l1920:
  2523   001572  504C               	movf	lcd_4bit_initialize@pin^0,w,c
  2524   001574  2448               	addwf	lcd_4bit_initialize@lcd^0,w,c
  2525   001576  6E4A               	movwf	??_lcd_4bit_initialize^0,c
  2526   001578  0E00               	movlw	0
  2527   00157A  2049               	addwfc	(lcd_4bit_initialize@lcd+1)^0,w,c
  2528   00157C  6E4B               	movwf	(??_lcd_4bit_initialize+1)^0,c
  2529   00157E  0E02               	movlw	2
  2530   001580  244A               	addwf	??_lcd_4bit_initialize^0,w,c
  2531   001582  6E40               	movwf	gpio_pin_initialize@pin_config^0,c
  2532   001584  0E00               	movlw	0
  2533   001586  204B               	addwfc	(??_lcd_4bit_initialize+1)^0,w,c
  2534   001588  6E41               	movwf	(gpio_pin_initialize@pin_config+1)^0,c
  2535   00158A  EC56  F00E         	call	_gpio_pin_initialize	;wreg free
  2536   00158E                     
  2537                           ;ECU_Layer/LCD/ecu_lcd.c: 24:         }
  2538   00158E  2A4C               	incf	lcd_4bit_initialize@pin^0,f,c
  2539   001590  0E03               	movlw	3
  2540   001592  644C               	cpfsgt	lcd_4bit_initialize@pin^0,c
  2541   001594  EFCE  F00A         	goto	u941
  2542   001598  EFD0  F00A         	goto	u940
  2543   00159C                     u941:
  2544   00159C  EFB9  F00A         	goto	l1920
  2545   0015A0                     u940:
  2546   0015A0                     
  2547                           ;ECU_Layer/LCD/ecu_lcd.c: 25:         _delay((unsigned long)((20)*(8000000UL/4000.0)));
  2548   0015A0  0E34               	movlw	52
  2549   0015A2  6E4A               	movwf	??_lcd_4bit_initialize^0,c
  2550   0015A4  0EF2               	movlw	242
  2551   0015A6                     u1277:
  2552   0015A6  2EE8               	decfsz	wreg,f,c
  2553   0015A8  D7FE               	bra	u1277
  2554   0015AA  2E4A               	decfsz	??_lcd_4bit_initialize^0,f,c
  2555   0015AC  D7FC               	bra	u1277
  2556   0015AE  C048  F044         	movff	lcd_4bit_initialize@lcd,lcd_4bit_send_command@lcd
  2557   0015B2  C049  F045         	movff	lcd_4bit_initialize@lcd+1,lcd_4bit_send_command@lcd+1
  2558   0015B6  0E38               	movlw	56
  2559   0015B8  6E46               	movwf	lcd_4bit_send_command@command^0,c
  2560   0015BA  ECE5  F00D         	call	_lcd_4bit_send_command	;wreg free
  2561   0015BE                     
  2562                           ;ECU_Layer/LCD/ecu_lcd.c: 27:         _delay((unsigned long)((5)*(8000000UL/4000.0)));
  2563   0015BE  0E0D               	movlw	13
  2564   0015C0  6E4A               	movwf	??_lcd_4bit_initialize^0,c
  2565   0015C2  0EFC               	movlw	252
  2566   0015C4                     u1287:
  2567   0015C4  2EE8               	decfsz	wreg,f,c
  2568   0015C6  D7FE               	bra	u1287
  2569   0015C8  2E4A               	decfsz	??_lcd_4bit_initialize^0,f,c
  2570   0015CA  D7FC               	bra	u1287
  2571   0015CC  C048  F044         	movff	lcd_4bit_initialize@lcd,lcd_4bit_send_command@lcd
  2572   0015D0  C049  F045         	movff	lcd_4bit_initialize@lcd+1,lcd_4bit_send_command@lcd+1
  2573   0015D4  0E38               	movlw	56
  2574   0015D6  6E46               	movwf	lcd_4bit_send_command@command^0,c
  2575   0015D8  ECE5  F00D         	call	_lcd_4bit_send_command	;wreg free
  2576   0015DC                     
  2577                           ;ECU_Layer/LCD/ecu_lcd.c: 29:         _delay((unsigned long)((150)*(8000000UL/4000000.0)
      +                          ));
  2578   0015DC  0E64               	movlw	100
  2579   0015DE                     u1297:
  2580   0015DE  2EE8               	decfsz	wreg,f,c
  2581   0015E0  D7FE               	bra	u1297
  2582   0015E2  C048  F044         	movff	lcd_4bit_initialize@lcd,lcd_4bit_send_command@lcd
  2583   0015E6  C049  F045         	movff	lcd_4bit_initialize@lcd+1,lcd_4bit_send_command@lcd+1
  2584   0015EA  0E38               	movlw	56
  2585   0015EC  6E46               	movwf	lcd_4bit_send_command@command^0,c
  2586   0015EE  ECE5  F00D         	call	_lcd_4bit_send_command	;wreg free
  2587   0015F2  C048  F044         	movff	lcd_4bit_initialize@lcd,lcd_4bit_send_command@lcd
  2588   0015F6  C049  F045         	movff	lcd_4bit_initialize@lcd+1,lcd_4bit_send_command@lcd+1
  2589   0015FA  0E01               	movlw	1
  2590   0015FC  6E46               	movwf	lcd_4bit_send_command@command^0,c
  2591   0015FE  ECE5  F00D         	call	_lcd_4bit_send_command	;wreg free
  2592   001602  C048  F044         	movff	lcd_4bit_initialize@lcd,lcd_4bit_send_command@lcd
  2593   001606  C049  F045         	movff	lcd_4bit_initialize@lcd+1,lcd_4bit_send_command@lcd+1
  2594   00160A  0E02               	movlw	2
  2595   00160C  6E46               	movwf	lcd_4bit_send_command@command^0,c
  2596   00160E  ECE5  F00D         	call	_lcd_4bit_send_command	;wreg free
  2597   001612  C048  F044         	movff	lcd_4bit_initialize@lcd,lcd_4bit_send_command@lcd
  2598   001616  C049  F045         	movff	lcd_4bit_initialize@lcd+1,lcd_4bit_send_command@lcd+1
  2599   00161A  0E06               	movlw	6
  2600   00161C  6E46               	movwf	lcd_4bit_send_command@command^0,c
  2601   00161E  ECE5  F00D         	call	_lcd_4bit_send_command	;wreg free
  2602   001622  C048  F044         	movff	lcd_4bit_initialize@lcd,lcd_4bit_send_command@lcd
  2603   001626  C049  F045         	movff	lcd_4bit_initialize@lcd+1,lcd_4bit_send_command@lcd+1
  2604   00162A  0E0C               	movlw	12
  2605   00162C  6E46               	movwf	lcd_4bit_send_command@command^0,c
  2606   00162E  ECE5  F00D         	call	_lcd_4bit_send_command	;wreg free
  2607   001632  C048  F044         	movff	lcd_4bit_initialize@lcd,lcd_4bit_send_command@lcd
  2608   001636  C049  F045         	movff	lcd_4bit_initialize@lcd+1,lcd_4bit_send_command@lcd+1
  2609   00163A  0E28               	movlw	40
  2610   00163C  6E46               	movwf	lcd_4bit_send_command@command^0,c
  2611   00163E  ECE5  F00D         	call	_lcd_4bit_send_command	;wreg free
  2612   001642                     
  2613                           ;ECU_Layer/LCD/ecu_lcd.c: 36:         ret = lcd_4bit_send_command(lcd , 0x80);
  2614   001642  C048  F044         	movff	lcd_4bit_initialize@lcd,lcd_4bit_send_command@lcd
  2615   001646  C049  F045         	movff	lcd_4bit_initialize@lcd+1,lcd_4bit_send_command@lcd+1
  2616   00164A  0E80               	movlw	128
  2617   00164C  6E46               	movwf	lcd_4bit_send_command@command^0,c
  2618   00164E  ECE5  F00D         	call	_lcd_4bit_send_command	;wreg free
  2619   001652  6E4D               	movwf	lcd_4bit_initialize@ret^0,c
  2620   001654                     l1948:
  2621                           
  2622                           ;ECU_Layer/LCD/ecu_lcd.c: 39:     return ret;
  2623   001654  504D               	movf	lcd_4bit_initialize@ret^0,w,c
  2624   001656  0012               	return		;funcret
  2625   001658                     __end_of_lcd_4bit_initialize:
  2626                           	callstack 0
  2627                           
  2628 ;; *************** function _lcd_4bit_send_command *****************
  2629 ;; Defined at:
  2630 ;;		line 42 in file "ECU_Layer/LCD/ecu_lcd.c"
  2631 ;; Parameters:    Size  Location     Type
  2632 ;;  lcd             2   14[COMRAM] PTR const struct .
  2633 ;;		 -> lcd(6), 
  2634 ;;  command         1   16[COMRAM] unsigned char 
  2635 ;; Auto vars:     Size  Location     Type
  2636 ;;  ret             1   17[COMRAM] unsigned char 
  2637 ;; Return value:  Size  Location     Type
  2638 ;;                  1    wreg      unsigned char 
  2639 ;; Registers used:
  2640 ;;		wreg, fsr2l, fsr2h, status,2, status,0, prodl, prodh, cstack
  2641 ;; Tracked objects:
  2642 ;;		On entry : 0/0
  2643 ;;		On exit  : 0/0
  2644 ;;		Unchanged: 0/0
  2645 ;; Data sizes:     COMRAM   BANK0   BANK1   BANK2   BANK3   BANK4   BANK5   BANK6   BANK7   BANK8   BANK9  BANK10  BANK1
      +1  BANK12  BANK13  BANK14  BANK15
  2646 ;;      Params:         3       0       0       0       0       0       0       0       0       0       0       0       
      +0       0       0       0       0
  2647 ;;      Locals:         1       0       0       0       0       0       0       0       0       0       0       0       
      +0       0       0       0       0
  2648 ;;      Temps:          0       0       0       0       0       0       0       0       0       0       0       0       
      +0       0       0       0       0
  2649 ;;      Totals:         4       0       0       0       0       0       0       0       0       0       0       0       
      +0       0       0       0       0
  2650 ;;Total ram usage:        4 bytes
  2651 ;; Hardware stack levels used: 1
  2652 ;; Hardware stack levels required when called: 2
  2653 ;; This function calls:
  2654 ;;		_gpio_pin_write_logic
  2655 ;;		_lcd_4bit_send_enable
  2656 ;;		_lcd_send_4bits
  2657 ;; This function is called by:
  2658 ;;		_lcd_4bit_initialize
  2659 ;;		_lcd_4bit_set_cursor
  2660 ;;		_main
  2661 ;; This function uses a non-reentrant model
  2662 ;;
  2663                           
  2664                           	psect	text15
  2665   001BCA                     __ptext15:
  2666                           	callstack 0
  2667   001BCA                     _lcd_4bit_send_command:
  2668                           	callstack 26
  2669   001BCA                     
  2670                           ;ECU_Layer/LCD/ecu_lcd.c: 44:     if(lcd == ((void*)0)){
  2671   001BCA  5044               	movf	lcd_4bit_send_command@lcd^0,w,c
  2672   001BCC  1045               	iorwf	(lcd_4bit_send_command@lcd+1)^0,w,c
  2673   001BCE  A4D8               	btfss	status,2,c
  2674   001BD0  EFEC  F00D         	goto	u841
  2675   001BD4  EFEE  F00D         	goto	u840
  2676   001BD8                     u841:
  2677   001BD8  EFF2  F00D         	goto	l1836
  2678   001BDC                     u840:
  2679   001BDC                     
  2680                           ;ECU_Layer/LCD/ecu_lcd.c: 45:         ret = (std_ReturnType)0x00;
  2681   001BDC  0E00               	movlw	0
  2682   001BDE  6E47               	movwf	lcd_4bit_send_command@ret^0,c
  2683                           
  2684                           ;ECU_Layer/LCD/ecu_lcd.c: 46:     }
  2685   001BE0  EF1C  F00E         	goto	l1838
  2686   001BE4                     l1836:
  2687                           
  2688                           ;ECU_Layer/LCD/ecu_lcd.c: 48:         ret = gpio_pin_write_logic(&(lcd->lcd_rs) , GPIO_L
      +                          OW);
  2689   001BE4  C044  F036         	movff	lcd_4bit_send_command@lcd,gpio_pin_write_logic@pin_config
  2690   001BE8  C045  F037         	movff	lcd_4bit_send_command@lcd+1,gpio_pin_write_logic@pin_config+1
  2691   001BEC  0E00               	movlw	0
  2692   001BEE  6E38               	movwf	gpio_pin_write_logic@logic^0,c
  2693   001BF0  EC04  F00A         	call	_gpio_pin_write_logic	;wreg free
  2694   001BF4  6E47               	movwf	lcd_4bit_send_command@ret^0,c
  2695                           
  2696                           ;ECU_Layer/LCD/ecu_lcd.c: 49:         ret = lcd_send_4bits(lcd , (command >> 4));
  2697   001BF6  C044  F040         	movff	lcd_4bit_send_command@lcd,lcd_send_4bits@lcd
  2698   001BFA  C045  F041         	movff	lcd_4bit_send_command@lcd+1,lcd_send_4bits@lcd+1
  2699   001BFE  3846               	swapf	lcd_4bit_send_command@command^0,w,c
  2700   001C00  0B0F               	andlw	15
  2701   001C02  6E42               	movwf	lcd_send_4bits@data_command^0,c
  2702   001C04  ECF2  F00C         	call	_lcd_send_4bits	;wreg free
  2703   001C08  6E47               	movwf	lcd_4bit_send_command@ret^0,c
  2704                           
  2705                           ;ECU_Layer/LCD/ecu_lcd.c: 50:         ret = lcd_4bit_send_enable(lcd);
  2706   001C0A  C044  F040         	movff	lcd_4bit_send_command@lcd,lcd_4bit_send_enable@lcd
  2707   001C0E  C045  F041         	movff	lcd_4bit_send_command@lcd+1,lcd_4bit_send_enable@lcd+1
  2708   001C12  ECBB  F00E         	call	_lcd_4bit_send_enable	;wreg free
  2709   001C16  6E47               	movwf	lcd_4bit_send_command@ret^0,c
  2710                           
  2711                           ;ECU_Layer/LCD/ecu_lcd.c: 51:         ret = lcd_send_4bits(lcd , command);
  2712   001C18  C044  F040         	movff	lcd_4bit_send_command@lcd,lcd_send_4bits@lcd
  2713   001C1C  C045  F041         	movff	lcd_4bit_send_command@lcd+1,lcd_send_4bits@lcd+1
  2714   001C20  C046  F042         	movff	lcd_4bit_send_command@command,lcd_send_4bits@data_command
  2715   001C24  ECF2  F00C         	call	_lcd_send_4bits	;wreg free
  2716   001C28  6E47               	movwf	lcd_4bit_send_command@ret^0,c
  2717                           
  2718                           ;ECU_Layer/LCD/ecu_lcd.c: 52:         ret = lcd_4bit_send_enable(lcd);
  2719   001C2A  C044  F040         	movff	lcd_4bit_send_command@lcd,lcd_4bit_send_enable@lcd
  2720   001C2E  C045  F041         	movff	lcd_4bit_send_command@lcd+1,lcd_4bit_send_enable@lcd+1
  2721   001C32  ECBB  F00E         	call	_lcd_4bit_send_enable	;wreg free
  2722   001C36  6E47               	movwf	lcd_4bit_send_command@ret^0,c
  2723   001C38                     l1838:
  2724                           
  2725                           ;ECU_Layer/LCD/ecu_lcd.c: 54:     return ret;
  2726   001C38  5047               	movf	lcd_4bit_send_command@ret^0,w,c
  2727   001C3A  0012               	return		;funcret
  2728   001C3C                     __end_of_lcd_4bit_send_command:
  2729                           	callstack 0
  2730                           
  2731 ;; *************** function _lcd_send_4bits *****************
  2732 ;; Defined at:
  2733 ;;		line 161 in file "ECU_Layer/LCD/ecu_lcd.c"
  2734 ;; Parameters:    Size  Location     Type
  2735 ;;  lcd             2   10[COMRAM] PTR const struct .
  2736 ;;		 -> lcd(6), 
  2737 ;;  data_command    1   12[COMRAM] unsigned char 
  2738 ;; Auto vars:     Size  Location     Type
  2739 ;;  ret             1   13[COMRAM] unsigned char 
  2740 ;; Return value:  Size  Location     Type
  2741 ;;                  1    wreg      unsigned char 
  2742 ;; Registers used:
  2743 ;;		wreg, fsr2l, fsr2h, status,2, status,0, prodl, prodh, cstack
  2744 ;; Tracked objects:
  2745 ;;		On entry : 0/0
  2746 ;;		On exit  : 0/0
  2747 ;;		Unchanged: 0/0
  2748 ;; Data sizes:     COMRAM   BANK0   BANK1   BANK2   BANK3   BANK4   BANK5   BANK6   BANK7   BANK8   BANK9  BANK10  BANK1
      +1  BANK12  BANK13  BANK14  BANK15
  2749 ;;      Params:         3       0       0       0       0       0       0       0       0       0       0       0       
      +0       0       0       0       0
  2750 ;;      Locals:         1       0       0       0       0       0       0       0       0       0       0       0       
      +0       0       0       0       0
  2751 ;;      Temps:          0       0       0       0       0       0       0       0       0       0       0       0       
      +0       0       0       0       0
  2752 ;;      Totals:         4       0       0       0       0       0       0       0       0       0       0       0       
      +0       0       0       0       0
  2753 ;;Total ram usage:        4 bytes
  2754 ;; Hardware stack levels used: 1
  2755 ;; Hardware stack levels required when called: 1
  2756 ;; This function calls:
  2757 ;;		_gpio_pin_write_logic
  2758 ;; This function is called by:
  2759 ;;		_lcd_4bit_send_command
  2760 ;;		_lcd_4bit_send_char_data
  2761 ;; This function uses a non-reentrant model
  2762 ;;
  2763                           
  2764                           	psect	text16
  2765   0019E4                     __ptext16:
  2766                           	callstack 0
  2767   0019E4                     _lcd_send_4bits:
  2768                           	callstack 26
  2769   0019E4                     
  2770                           ;ECU_Layer/LCD/ecu_lcd.c: 163:     if(lcd == ((void*)0)){
  2771   0019E4  5040               	movf	lcd_send_4bits@lcd^0,w,c
  2772   0019E6  1041               	iorwf	(lcd_send_4bits@lcd+1)^0,w,c
  2773   0019E8  A4D8               	btfss	status,2,c
  2774   0019EA  EFF9  F00C         	goto	u801
  2775   0019EE  EFFB  F00C         	goto	u800
  2776   0019F2                     u801:
  2777   0019F2  EFFF  F00C         	goto	l1794
  2778   0019F6                     u800:
  2779   0019F6                     
  2780                           ;ECU_Layer/LCD/ecu_lcd.c: 164:         ret = (std_ReturnType)0x00;
  2781   0019F6  0E00               	movlw	0
  2782   0019F8  6E43               	movwf	lcd_send_4bits@ret^0,c
  2783                           
  2784                           ;ECU_Layer/LCD/ecu_lcd.c: 165:     }
  2785   0019FA  EF34  F00D         	goto	l1796
  2786   0019FE                     l1794:
  2787                           
  2788                           ;ECU_Layer/LCD/ecu_lcd.c: 167:         ret = gpio_pin_write_logic(&(lcd->lcd_data[0]) , 
      +                          (data_command >> 0) & (uint8)0x01 );
  2789   0019FE  0E02               	movlw	2
  2790   001A00  2440               	addwf	lcd_send_4bits@lcd^0,w,c
  2791   001A02  6E36               	movwf	gpio_pin_write_logic@pin_config^0,c
  2792   001A04  0E00               	movlw	0
  2793   001A06  2041               	addwfc	(lcd_send_4bits@lcd+1)^0,w,c
  2794   001A08  6E37               	movwf	(gpio_pin_write_logic@pin_config+1)^0,c
  2795   001A0A  5042               	movf	lcd_send_4bits@data_command^0,w,c
  2796   001A0C  0B01               	andlw	1
  2797   001A0E  6E38               	movwf	gpio_pin_write_logic@logic^0,c
  2798   001A10  EC04  F00A         	call	_gpio_pin_write_logic	;wreg free
  2799   001A14  6E43               	movwf	lcd_send_4bits@ret^0,c
  2800                           
  2801                           ;ECU_Layer/LCD/ecu_lcd.c: 168:         ret = gpio_pin_write_logic(&(lcd->lcd_data[1]) , 
      +                          (data_command >> 1) & (uint8)0x01 );
  2802   001A16  0E03               	movlw	3
  2803   001A18  2440               	addwf	lcd_send_4bits@lcd^0,w,c
  2804   001A1A  6E36               	movwf	gpio_pin_write_logic@pin_config^0,c
  2805   001A1C  0E00               	movlw	0
  2806   001A1E  2041               	addwfc	(lcd_send_4bits@lcd+1)^0,w,c
  2807   001A20  6E37               	movwf	(gpio_pin_write_logic@pin_config+1)^0,c
  2808   001A22  90D8               	bcf	status,0,c
  2809   001A24  3042               	rrcf	lcd_send_4bits@data_command^0,w,c
  2810   001A26  0B01               	andlw	1
  2811   001A28  6E38               	movwf	gpio_pin_write_logic@logic^0,c
  2812   001A2A  EC04  F00A         	call	_gpio_pin_write_logic	;wreg free
  2813   001A2E  6E43               	movwf	lcd_send_4bits@ret^0,c
  2814                           
  2815                           ;ECU_Layer/LCD/ecu_lcd.c: 169:         ret = gpio_pin_write_logic(&(lcd->lcd_data[2]) , 
      +                          (data_command >> 2) & (uint8)0x01 );
  2816   001A30  0E04               	movlw	4
  2817   001A32  2440               	addwf	lcd_send_4bits@lcd^0,w,c
  2818   001A34  6E36               	movwf	gpio_pin_write_logic@pin_config^0,c
  2819   001A36  0E00               	movlw	0
  2820   001A38  2041               	addwfc	(lcd_send_4bits@lcd+1)^0,w,c
  2821   001A3A  6E37               	movwf	(gpio_pin_write_logic@pin_config+1)^0,c
  2822   001A3C  4042               	rrncf	lcd_send_4bits@data_command^0,w,c
  2823   001A3E  42E8               	rrncf	wreg,f,c
  2824   001A40  0B3F               	andlw	63
  2825   001A42  0B01               	andlw	1
  2826   001A44  6E38               	movwf	gpio_pin_write_logic@logic^0,c
  2827   001A46  EC04  F00A         	call	_gpio_pin_write_logic	;wreg free
  2828   001A4A  6E43               	movwf	lcd_send_4bits@ret^0,c
  2829                           
  2830                           ;ECU_Layer/LCD/ecu_lcd.c: 170:         ret = gpio_pin_write_logic(&(lcd->lcd_data[3]) , 
      +                          (data_command >> 3) & (uint8)0x01 );
  2831   001A4C  0E05               	movlw	5
  2832   001A4E  2440               	addwf	lcd_send_4bits@lcd^0,w,c
  2833   001A50  6E36               	movwf	gpio_pin_write_logic@pin_config^0,c
  2834   001A52  0E00               	movlw	0
  2835   001A54  2041               	addwfc	(lcd_send_4bits@lcd+1)^0,w,c
  2836   001A56  6E37               	movwf	(gpio_pin_write_logic@pin_config+1)^0,c
  2837   001A58  3842               	swapf	lcd_send_4bits@data_command^0,w,c
  2838   001A5A  46E8               	rlncf	wreg,f,c
  2839   001A5C  0B1F               	andlw	31
  2840   001A5E  0B01               	andlw	1
  2841   001A60  6E38               	movwf	gpio_pin_write_logic@logic^0,c
  2842   001A62  EC04  F00A         	call	_gpio_pin_write_logic	;wreg free
  2843   001A66  6E43               	movwf	lcd_send_4bits@ret^0,c
  2844   001A68                     l1796:
  2845                           
  2846                           ;ECU_Layer/LCD/ecu_lcd.c: 172:     return ret;
  2847   001A68  5043               	movf	lcd_send_4bits@ret^0,w,c
  2848   001A6A  0012               	return		;funcret
  2849   001A6C                     __end_of_lcd_send_4bits:
  2850                           	callstack 0
  2851                           
  2852 ;; *************** function _lcd_4bit_send_enable *****************
  2853 ;; Defined at:
  2854 ;;		line 114 in file "ECU_Layer/LCD/ecu_lcd.c"
  2855 ;; Parameters:    Size  Location     Type
  2856 ;;  lcd             2   10[COMRAM] PTR const struct .
  2857 ;;		 -> lcd(6), 
  2858 ;; Auto vars:     Size  Location     Type
  2859 ;;  ret             1   12[COMRAM] unsigned char 
  2860 ;; Return value:  Size  Location     Type
  2861 ;;                  1    wreg      unsigned char 
  2862 ;; Registers used:
  2863 ;;		wreg, fsr2l, fsr2h, status,2, status,0, prodl, prodh, cstack
  2864 ;; Tracked objects:
  2865 ;;		On entry : 0/0
  2866 ;;		On exit  : 0/0
  2867 ;;		Unchanged: 0/0
  2868 ;; Data sizes:     COMRAM   BANK0   BANK1   BANK2   BANK3   BANK4   BANK5   BANK6   BANK7   BANK8   BANK9  BANK10  BANK1
      +1  BANK12  BANK13  BANK14  BANK15
  2869 ;;      Params:         2       0       0       0       0       0       0       0       0       0       0       0       
      +0       0       0       0       0
  2870 ;;      Locals:         1       0       0       0       0       0       0       0       0       0       0       0       
      +0       0       0       0       0
  2871 ;;      Temps:          0       0       0       0       0       0       0       0       0       0       0       0       
      +0       0       0       0       0
  2872 ;;      Totals:         3       0       0       0       0       0       0       0       0       0       0       0       
      +0       0       0       0       0
  2873 ;;Total ram usage:        3 bytes
  2874 ;; Hardware stack levels used: 1
  2875 ;; Hardware stack levels required when called: 1
  2876 ;; This function calls:
  2877 ;;		_gpio_pin_write_logic
  2878 ;; This function is called by:
  2879 ;;		_lcd_4bit_send_command
  2880 ;;		_lcd_4bit_send_char_data
  2881 ;; This function uses a non-reentrant model
  2882 ;;
  2883                           
  2884                           	psect	text17
  2885   001D76                     __ptext17:
  2886                           	callstack 0
  2887   001D76                     _lcd_4bit_send_enable:
  2888                           	callstack 26
  2889   001D76                     
  2890                           ;ECU_Layer/LCD/ecu_lcd.c: 116:     if(lcd == ((void*)0)){
  2891   001D76  5040               	movf	lcd_4bit_send_enable@lcd^0,w,c
  2892   001D78  1041               	iorwf	(lcd_4bit_send_enable@lcd+1)^0,w,c
  2893   001D7A  A4D8               	btfss	status,2,c
  2894   001D7C  EFC2  F00E         	goto	u811
  2895   001D80  EFC4  F00E         	goto	u810
  2896   001D84                     u811:
  2897   001D84  EFC8  F00E         	goto	l1806
  2898   001D88                     u810:
  2899   001D88                     
  2900                           ;ECU_Layer/LCD/ecu_lcd.c: 117:         ret = (std_ReturnType)0x00;
  2901   001D88  0E00               	movlw	0
  2902   001D8A  6E42               	movwf	lcd_4bit_send_enable@ret^0,c
  2903                           
  2904                           ;ECU_Layer/LCD/ecu_lcd.c: 118:     }
  2905   001D8C  EFE1  F00E         	goto	l1812
  2906   001D90                     l1806:
  2907   001D90  0E01               	movlw	1
  2908   001D92  2440               	addwf	lcd_4bit_send_enable@lcd^0,w,c
  2909   001D94  6E36               	movwf	gpio_pin_write_logic@pin_config^0,c
  2910   001D96  0E00               	movlw	0
  2911   001D98  2041               	addwfc	(lcd_4bit_send_enable@lcd+1)^0,w,c
  2912   001D9A  6E37               	movwf	(gpio_pin_write_logic@pin_config+1)^0,c
  2913   001D9C  0E01               	movlw	1
  2914   001D9E  6E38               	movwf	gpio_pin_write_logic@logic^0,c
  2915   001DA0  EC04  F00A         	call	_gpio_pin_write_logic	;wreg free
  2916   001DA4                     
  2917                           ;ECU_Layer/LCD/ecu_lcd.c: 121:         _delay((unsigned long)((5)*(8000000UL/4000000.0))
      +                          );
  2918   001DA4  0E03               	movlw	3
  2919   001DA6                     u1307:
  2920   001DA6  2EE8               	decfsz	wreg,f,c
  2921   001DA8  D7FE               	bra	u1307
  2922   001DAA  F000               	nop	
  2923   001DAC                     
  2924                           ;ECU_Layer/LCD/ecu_lcd.c: 122:         ret = gpio_pin_write_logic(&(lcd->lcd_en) , GPIO_
      +                          LOW);
  2925   001DAC  0E01               	movlw	1
  2926   001DAE  2440               	addwf	lcd_4bit_send_enable@lcd^0,w,c
  2927   001DB0  6E36               	movwf	gpio_pin_write_logic@pin_config^0,c
  2928   001DB2  0E00               	movlw	0
  2929   001DB4  2041               	addwfc	(lcd_4bit_send_enable@lcd+1)^0,w,c
  2930   001DB6  6E37               	movwf	(gpio_pin_write_logic@pin_config+1)^0,c
  2931   001DB8  0E00               	movlw	0
  2932   001DBA  6E38               	movwf	gpio_pin_write_logic@logic^0,c
  2933   001DBC  EC04  F00A         	call	_gpio_pin_write_logic	;wreg free
  2934   001DC0  6E42               	movwf	lcd_4bit_send_enable@ret^0,c
  2935   001DC2                     l1812:
  2936                           
  2937                           ;ECU_Layer/LCD/ecu_lcd.c: 124:     return ret;
  2938   001DC2  5042               	movf	lcd_4bit_send_enable@ret^0,w,c
  2939   001DC4  0012               	return		;funcret
  2940   001DC6                     __end_of_lcd_4bit_send_enable:
  2941                           	callstack 0
  2942                           
  2943 ;; *************** function _keypad_initialize *****************
  2944 ;; Defined at:
  2945 ;;		line 24 in file "ECU_Layer/Keypad/ecu_keypad.c"
  2946 ;; Parameters:    Size  Location     Type
  2947 ;;  keypad          2   14[COMRAM] PTR const struct .
  2948 ;;		 -> keypad(7), 
  2949 ;; Auto vars:     Size  Location     Type
  2950 ;;  col_counter     1   20[COMRAM] unsigned char 
  2951 ;;  row_counter     1   19[COMRAM] unsigned char 
  2952 ;;  ret             1   18[COMRAM] unsigned char 
  2953 ;; Return value:  Size  Location     Type
  2954 ;;                  1    wreg      unsigned char 
  2955 ;; Registers used:
  2956 ;;		wreg, fsr2l, fsr2h, status,2, status,0, prodl, prodh, cstack
  2957 ;; Tracked objects:
  2958 ;;		On entry : 0/0
  2959 ;;		On exit  : 0/0
  2960 ;;		Unchanged: 0/0
  2961 ;; Data sizes:     COMRAM   BANK0   BANK1   BANK2   BANK3   BANK4   BANK5   BANK6   BANK7   BANK8   BANK9  BANK10  BANK1
      +1  BANK12  BANK13  BANK14  BANK15
  2962 ;;      Params:         2       0       0       0       0       0       0       0       0       0       0       0       
      +0       0       0       0       0
  2963 ;;      Locals:         3       0       0       0       0       0       0       0       0       0       0       0       
      +0       0       0       0       0
  2964 ;;      Temps:          2       0       0       0       0       0       0       0       0       0       0       0       
      +0       0       0       0       0
  2965 ;;      Totals:         7       0       0       0       0       0       0       0       0       0       0       0       
      +0       0       0       0       0
  2966 ;;Total ram usage:        7 bytes
  2967 ;; Hardware stack levels used: 1
  2968 ;; Hardware stack levels required when called: 2
  2969 ;; This function calls:
  2970 ;;		_gpio_pin_direction_initialize
  2971 ;;		_gpio_pin_initialize
  2972 ;; This function is called by:
  2973 ;;		_ecu_layer_initialize
  2974 ;; This function uses a non-reentrant model
  2975 ;;
  2976                           
  2977                           	psect	text18
  2978   001A6C                     __ptext18:
  2979                           	callstack 0
  2980   001A6C                     _keypad_initialize:
  2981                           	callstack 26
  2982   001A6C                     
  2983                           ;ECU_Layer/Keypad/ecu_keypad.c: 26:     if(keypad == ((void*)0)){
  2984   001A6C  5044               	movf	keypad_initialize@keypad^0,w,c
  2985   001A6E  1045               	iorwf	(keypad_initialize@keypad+1)^0,w,c
  2986   001A70  A4D8               	btfss	status,2,c
  2987   001A72  EF3D  F00D         	goto	u861
  2988   001A76  EF3F  F00D         	goto	u860
  2989   001A7A                     u861:
  2990   001A7A  EF43  F00D         	goto	l1862
  2991   001A7E                     u860:
  2992   001A7E                     
  2993                           ;ECU_Layer/Keypad/ecu_keypad.c: 27:         ret = (std_ReturnType)0x00;
  2994   001A7E  0E00               	movlw	0
  2995   001A80  6E48               	movwf	keypad_initialize@ret^0,c
  2996                           
  2997                           ;ECU_Layer/Keypad/ecu_keypad.c: 28:     }
  2998   001A82  EF70  F00D         	goto	l1886
  2999   001A86                     l1862:
  3000                           
  3001                           ;ECU_Layer/Keypad/ecu_keypad.c: 30:         for(uint8 row_counter = 0 ; row_counter < 4 
      +                          ; row_counter++){
  3002   001A86  0E00               	movlw	0
  3003   001A88  6E49               	movwf	keypad_initialize@row_counter^0,c
  3004   001A8A                     l1868:
  3005   001A8A  5049               	movf	keypad_initialize@row_counter^0,w,c
  3006   001A8C  2444               	addwf	keypad_initialize@keypad^0,w,c
  3007   001A8E  6E40               	movwf	gpio_pin_initialize@pin_config^0,c
  3008   001A90  0E00               	movlw	0
  3009   001A92  2045               	addwfc	(keypad_initialize@keypad+1)^0,w,c
  3010   001A94  6E41               	movwf	(gpio_pin_initialize@pin_config+1)^0,c
  3011   001A96  EC56  F00E         	call	_gpio_pin_initialize	;wreg free
  3012   001A9A                     
  3013                           ;ECU_Layer/Keypad/ecu_keypad.c: 32:         }
  3014   001A9A  2A49               	incf	keypad_initialize@row_counter^0,f,c
  3015   001A9C  0E03               	movlw	3
  3016   001A9E  6449               	cpfsgt	keypad_initialize@row_counter^0,c
  3017   001AA0  EF54  F00D         	goto	u871
  3018   001AA4  EF56  F00D         	goto	u870
  3019   001AA8                     u871:
  3020   001AA8  EF45  F00D         	goto	l1868
  3021   001AAC                     u870:
  3022   001AAC                     
  3023                           ;ECU_Layer/Keypad/ecu_keypad.c: 33:         for(uint8 col_counter = 0 ; col_counter < 3 
      +                          ; col_counter++){
  3024   001AAC  0E00               	movlw	0
  3025   001AAE  6E4A               	movwf	keypad_initialize@col_counter^0,c
  3026   001AB0                     l1880:
  3027                           
  3028                           ;ECU_Layer/Keypad/ecu_keypad.c: 34:             ret = gpio_pin_direction_initialize(&(ke
      +                          ypad->keypad_columns_pins[col_counter]));
  3029   001AB0  504A               	movf	keypad_initialize@col_counter^0,w,c
  3030   001AB2  2444               	addwf	keypad_initialize@keypad^0,w,c
  3031   001AB4  6E46               	movwf	??_keypad_initialize^0,c
  3032   001AB6  0E00               	movlw	0
  3033   001AB8  2045               	addwfc	(keypad_initialize@keypad+1)^0,w,c
  3034   001ABA  6E47               	movwf	(??_keypad_initialize+1)^0,c
  3035   001ABC  0E04               	movlw	4
  3036   001ABE  2446               	addwf	??_keypad_initialize^0,w,c
  3037   001AC0  6E36               	movwf	gpio_pin_direction_initialize@pin_config^0,c
  3038   001AC2  0E00               	movlw	0
  3039   001AC4  2047               	addwfc	(??_keypad_initialize+1)^0,w,c
  3040   001AC6  6E37               	movwf	(gpio_pin_direction_initialize@pin_config+1)^0,c
  3041   001AC8  EC62  F009         	call	_gpio_pin_direction_initialize	;wreg free
  3042   001ACC  6E48               	movwf	keypad_initialize@ret^0,c
  3043   001ACE                     
  3044                           ;ECU_Layer/Keypad/ecu_keypad.c: 35:         }
  3045   001ACE  2A4A               	incf	keypad_initialize@col_counter^0,f,c
  3046   001AD0  0E02               	movlw	2
  3047   001AD2  644A               	cpfsgt	keypad_initialize@col_counter^0,c
  3048   001AD4  EF6E  F00D         	goto	u881
  3049   001AD8  EF70  F00D         	goto	u880
  3050   001ADC                     u881:
  3051   001ADC  EF58  F00D         	goto	l1880
  3052   001AE0                     u880:
  3053   001AE0                     l1886:
  3054                           
  3055                           ;ECU_Layer/Keypad/ecu_keypad.c: 37:     return ret;
  3056   001AE0  5048               	movf	keypad_initialize@ret^0,w,c
  3057   001AE2  0012               	return		;funcret
  3058   001AE4                     __end_of_keypad_initialize:
  3059                           	callstack 0
  3060                           
  3061 ;; *************** function _dc_motor_initialize *****************
  3062 ;; Defined at:
  3063 ;;		line 15 in file "ECU_Layer/DC_Motor/ecu_dc_motor.c"
  3064 ;; Parameters:    Size  Location     Type
  3065 ;;  motor           2   14[COMRAM] PTR const struct .
  3066 ;;		 -> motor(2), 
  3067 ;; Auto vars:     Size  Location     Type
  3068 ;;  ret             1   16[COMRAM] unsigned char 
  3069 ;; Return value:  Size  Location     Type
  3070 ;;                  1    wreg      unsigned char 
  3071 ;; Registers used:
  3072 ;;		wreg, fsr2l, fsr2h, status,2, status,0, prodl, prodh, cstack
  3073 ;; Tracked objects:
  3074 ;;		On entry : 0/0
  3075 ;;		On exit  : 0/0
  3076 ;;		Unchanged: 0/0
  3077 ;; Data sizes:     COMRAM   BANK0   BANK1   BANK2   BANK3   BANK4   BANK5   BANK6   BANK7   BANK8   BANK9  BANK10  BANK1
      +1  BANK12  BANK13  BANK14  BANK15
  3078 ;;      Params:         2       0       0       0       0       0       0       0       0       0       0       0       
      +0       0       0       0       0
  3079 ;;      Locals:         1       0       0       0       0       0       0       0       0       0       0       0       
      +0       0       0       0       0
  3080 ;;      Temps:          0       0       0       0       0       0       0       0       0       0       0       0       
      +0       0       0       0       0
  3081 ;;      Totals:         3       0       0       0       0       0       0       0       0       0       0       0       
      +0       0       0       0       0
  3082 ;;Total ram usage:        3 bytes
  3083 ;; Hardware stack levels used: 1
  3084 ;; Hardware stack levels required when called: 2
  3085 ;; This function calls:
  3086 ;;		_gpio_pin_initialize
  3087 ;; This function is called by:
  3088 ;;		_ecu_layer_initialize
  3089 ;; This function uses a non-reentrant model
  3090 ;;
  3091                           
  3092                           	psect	text19
  3093   001E9A                     __ptext19:
  3094                           	callstack 0
  3095   001E9A                     _dc_motor_initialize:
  3096                           	callstack 26
  3097   001E9A                     
  3098                           ;ECU_Layer/DC_Motor/ecu_dc_motor.c: 17:     if(motor == ((void*)0)){
  3099   001E9A  5044               	movf	dc_motor_initialize@motor^0,w,c
  3100   001E9C  1045               	iorwf	(dc_motor_initialize@motor+1)^0,w,c
  3101   001E9E  A4D8               	btfss	status,2,c
  3102   001EA0  EF54  F00F         	goto	u851
  3103   001EA4  EF56  F00F         	goto	u850
  3104   001EA8                     u851:
  3105   001EA8  EF5A  F00F         	goto	l1848
  3106   001EAC                     u850:
  3107   001EAC                     
  3108                           ;ECU_Layer/DC_Motor/ecu_dc_motor.c: 18:         ret = (std_ReturnType)0x00;
  3109   001EAC  0E00               	movlw	0
  3110   001EAE  6E46               	movwf	dc_motor_initialize@ret^0,c
  3111                           
  3112                           ;ECU_Layer/DC_Motor/ecu_dc_motor.c: 19:     }
  3113   001EB0  EF6A  F00F         	goto	l1852
  3114   001EB4                     l1848:
  3115                           
  3116                           ;ECU_Layer/DC_Motor/ecu_dc_motor.c: 21:         gpio_pin_initialize(&(motor->dc_motor[0]
      +                          ));
  3117   001EB4  C044  F040         	movff	dc_motor_initialize@motor,gpio_pin_initialize@pin_config
  3118   001EB8  C045  F041         	movff	dc_motor_initialize@motor+1,gpio_pin_initialize@pin_config+1
  3119   001EBC  EC56  F00E         	call	_gpio_pin_initialize	;wreg free
  3120                           
  3121                           ;ECU_Layer/DC_Motor/ecu_dc_motor.c: 22:         gpio_pin_initialize(&(motor->dc_motor[1]
      +                          ));
  3122   001EC0  0E01               	movlw	1
  3123   001EC2  2444               	addwf	dc_motor_initialize@motor^0,w,c
  3124   001EC4  6E40               	movwf	gpio_pin_initialize@pin_config^0,c
  3125   001EC6  0E00               	movlw	0
  3126   001EC8  2045               	addwfc	(dc_motor_initialize@motor+1)^0,w,c
  3127   001ECA  6E41               	movwf	(gpio_pin_initialize@pin_config+1)^0,c
  3128   001ECC  EC56  F00E         	call	_gpio_pin_initialize	;wreg free
  3129   001ED0                     
  3130                           ;ECU_Layer/DC_Motor/ecu_dc_motor.c: 23:         ret = (std_ReturnType)0x01;
  3131   001ED0  0E01               	movlw	1
  3132   001ED2  6E46               	movwf	dc_motor_initialize@ret^0,c
  3133   001ED4                     l1852:
  3134                           
  3135                           ;ECU_Layer/DC_Motor/ecu_dc_motor.c: 25:     return ret;
  3136   001ED4  5046               	movf	dc_motor_initialize@ret^0,w,c
  3137   001ED6  0012               	return		;funcret
  3138   001ED8                     __end_of_dc_motor_initialize:
  3139                           	callstack 0
  3140                           
  3141 ;; *************** function _gpio_pin_initialize *****************
  3142 ;; Defined at:
  3143 ;;		line 123 in file "MCAL_Layer/GPIO/hal_gpio.c"
  3144 ;; Parameters:    Size  Location     Type
  3145 ;;  pin_config      2   10[COMRAM] PTR const struct .
  3146 ;;		 -> motor.dc_motor(2), motor(2), keypad.keypad_rows_pins(4), keypad(7), 
  3147 ;;		 -> lcd.lcd_data(4), lcd(6), 
  3148 ;; Auto vars:     Size  Location     Type
  3149 ;;  ret             1   13[COMRAM] unsigned char 
  3150 ;; Return value:  Size  Location     Type
  3151 ;;                  1    wreg      unsigned char 
  3152 ;; Registers used:
  3153 ;;		wreg, fsr2l, fsr2h, status,2, status,0, prodl, prodh, cstack
  3154 ;; Tracked objects:
  3155 ;;		On entry : 0/0
  3156 ;;		On exit  : 0/0
  3157 ;;		Unchanged: 0/0
  3158 ;; Data sizes:     COMRAM   BANK0   BANK1   BANK2   BANK3   BANK4   BANK5   BANK6   BANK7   BANK8   BANK9  BANK10  BANK1
      +1  BANK12  BANK13  BANK14  BANK15
  3159 ;;      Params:         2       0       0       0       0       0       0       0       0       0       0       0       
      +0       0       0       0       0
  3160 ;;      Locals:         1       0       0       0       0       0       0       0       0       0       0       0       
      +0       0       0       0       0
  3161 ;;      Temps:          1       0       0       0       0       0       0       0       0       0       0       0       
      +0       0       0       0       0
  3162 ;;      Totals:         4       0       0       0       0       0       0       0       0       0       0       0       
      +0       0       0       0       0
  3163 ;;Total ram usage:        4 bytes
  3164 ;; Hardware stack levels used: 1
  3165 ;; Hardware stack levels required when called: 1
  3166 ;; This function calls:
  3167 ;;		_gpio_pin_direction_initialize
  3168 ;;		_gpio_pin_write_logic
  3169 ;; This function is called by:
  3170 ;;		_dc_motor_initialize
  3171 ;;		_keypad_initialize
  3172 ;;		_lcd_4bit_initialize
  3173 ;; This function uses a non-reentrant model
  3174 ;;
  3175                           
  3176                           	psect	text20
  3177   001CAC                     __ptext20:
  3178                           	callstack 0
  3179   001CAC                     _gpio_pin_initialize:
  3180                           	callstack 26
  3181   001CAC                     
  3182                           ;MCAL_Layer/GPIO/hal_gpio.c: 124:     std_ReturnType ret = (std_ReturnType)0x01;
  3183   001CAC  0E01               	movlw	1
  3184   001CAE  6E43               	movwf	gpio_pin_initialize@ret^0,c
  3185   001CB0                     
  3186                           ;MCAL_Layer/GPIO/hal_gpio.c: 125:     if(pin_config == ((void*)0) || pin_config->pin > 8
      +                           -1){
  3187   001CB0  5040               	movf	gpio_pin_initialize@pin_config^0,w,c
  3188   001CB2  1041               	iorwf	(gpio_pin_initialize@pin_config+1)^0,w,c
  3189   001CB4  B4D8               	btfsc	status,2,c
  3190   001CB6  EF5F  F00E         	goto	u821
  3191   001CBA  EF61  F00E         	goto	u820
  3192   001CBE                     u821:
  3193   001CBE  EF72  F00E         	goto	l1822
  3194   001CC2                     u820:
  3195   001CC2  C040  FFD9         	movff	gpio_pin_initialize@pin_config,fsr2l
  3196   001CC6  C041  FFDA         	movff	gpio_pin_initialize@pin_config+1,fsr2h
  3197   001CCA  30DF               	rrcf	223,w,c
  3198   001CCC  32E8               	rrcf	wreg,f,c
  3199   001CCE  32E8               	rrcf	wreg,f,c
  3200   001CD0  0B07               	andlw	7
  3201   001CD2  6E42               	movwf	??_gpio_pin_initialize^0,c
  3202   001CD4  0E07               	movlw	7
  3203   001CD6  6442               	cpfsgt	??_gpio_pin_initialize^0,c
  3204   001CD8  EF70  F00E         	goto	u831
  3205   001CDC  EF72  F00E         	goto	u830
  3206   001CE0                     u831:
  3207   001CE0  EF76  F00E         	goto	l1824
  3208   001CE4                     u830:
  3209   001CE4                     l1822:
  3210                           
  3211                           ;MCAL_Layer/GPIO/hal_gpio.c: 126:         ret = (std_ReturnType)0x00;
  3212   001CE4  0E00               	movlw	0
  3213   001CE6  6E43               	movwf	gpio_pin_initialize@ret^0,c
  3214                           
  3215                           ;MCAL_Layer/GPIO/hal_gpio.c: 127:     }
  3216   001CE8  EF8A  F00E         	goto	l1826
  3217   001CEC                     l1824:
  3218                           
  3219                           ;MCAL_Layer/GPIO/hal_gpio.c: 129:         gpio_pin_direction_initialize(pin_config);
  3220   001CEC  C040  F036         	movff	gpio_pin_initialize@pin_config,gpio_pin_direction_initialize@pin_config
  3221   001CF0  C041  F037         	movff	gpio_pin_initialize@pin_config+1,gpio_pin_direction_initialize@pin_config+1
  3222   001CF4  EC62  F009         	call	_gpio_pin_direction_initialize	;wreg free
  3223                           
  3224                           ;MCAL_Layer/GPIO/hal_gpio.c: 130:         gpio_pin_write_logic(pin_config , pin_config->
      +                          logic);
  3225   001CF8  C040  F036         	movff	gpio_pin_initialize@pin_config,gpio_pin_write_logic@pin_config
  3226   001CFC  C041  F037         	movff	gpio_pin_initialize@pin_config+1,gpio_pin_write_logic@pin_config+1
  3227   001D00  C040  FFD9         	movff	gpio_pin_initialize@pin_config,fsr2l
  3228   001D04  C041  FFDA         	movff	gpio_pin_initialize@pin_config+1,fsr2h
  3229   001D08  0E00               	movlw	0
  3230   001D0A  BEDF               	btfsc	indf2,7,c
  3231   001D0C  0E01               	movlw	1
  3232   001D0E  6E38               	movwf	gpio_pin_write_logic@logic^0,c
  3233   001D10  EC04  F00A         	call	_gpio_pin_write_logic	;wreg free
  3234   001D14                     l1826:
  3235                           
  3236                           ;MCAL_Layer/GPIO/hal_gpio.c: 133:     return ret;
  3237   001D14  5043               	movf	gpio_pin_initialize@ret^0,w,c
  3238   001D16  0012               	return		;funcret
  3239   001D18                     __end_of_gpio_pin_initialize:
  3240                           	callstack 0
  3241                           
  3242 ;; *************** function _gpio_pin_write_logic *****************
  3243 ;; Defined at:
  3244 ;;		line 75 in file "MCAL_Layer/GPIO/hal_gpio.c"
  3245 ;; Parameters:    Size  Location     Type
  3246 ;;  pin_config      2    0[COMRAM] PTR const struct .
  3247 ;;		 -> motor.dc_motor(2), motor(2), keypad.keypad_rows_pins(4), keypad(7), 
  3248 ;;		 -> lcd.lcd_data(4), lcd(6), led_turn_off@led_pin(1), led_turn_on@led_pin(1), 
  3249 ;;  logic           1    2[COMRAM] enum E2968
  3250 ;; Auto vars:     Size  Location     Type
  3251 ;;  ret             1    9[COMRAM] unsigned char 
  3252 ;; Return value:  Size  Location     Type
  3253 ;;                  1    wreg      unsigned char 
  3254 ;; Registers used:
  3255 ;;		wreg, fsr2l, fsr2h, status,2, status,0, prodl, prodh
  3256 ;; Tracked objects:
  3257 ;;		On entry : 0/0
  3258 ;;		On exit  : 0/0
  3259 ;;		Unchanged: 0/0
  3260 ;; Data sizes:     COMRAM   BANK0   BANK1   BANK2   BANK3   BANK4   BANK5   BANK6   BANK7   BANK8   BANK9  BANK10  BANK1
      +1  BANK12  BANK13  BANK14  BANK15
  3261 ;;      Params:         3       0       0       0       0       0       0       0       0       0       0       0       
      +0       0       0       0       0
  3262 ;;      Locals:         1       0       0       0       0       0       0       0       0       0       0       0       
      +0       0       0       0       0
  3263 ;;      Temps:          6       0       0       0       0       0       0       0       0       0       0       0       
      +0       0       0       0       0
  3264 ;;      Totals:        10       0       0       0       0       0       0       0       0       0       0       0       
      +0       0       0       0       0
  3265 ;;Total ram usage:       10 bytes
  3266 ;; Hardware stack levels used: 1
  3267 ;; This function calls:
  3268 ;;		Nothing
  3269 ;; This function is called by:
  3270 ;;		_dc_motor_move_right
  3271 ;;		_keypad_get_value
  3272 ;;		_lcd_4bit_send_command
  3273 ;;		_lcd_4bit_send_char_data
  3274 ;;		_lcd_4bit_send_enable
  3275 ;;		_lcd_send_4bits
  3276 ;;		_led_turn_on
  3277 ;;		_gpio_pin_initialize
  3278 ;;		_dc_motor_move_left
  3279 ;;		_dc_motor_stop
  3280 ;;		_led_turn_off
  3281 ;; This function uses a non-reentrant model
  3282 ;;
  3283                           
  3284                           	psect	text21
  3285   001408                     __ptext21:
  3286                           	callstack 0
  3287   001408                     _gpio_pin_write_logic:
  3288                           	callstack 29
  3289   001408                     
  3290                           ;MCAL_Layer/GPIO/hal_gpio.c: 76:     std_ReturnType ret = (std_ReturnType)0x01;
  3291   001408  0E01               	movlw	1
  3292   00140A  6E3F               	movwf	gpio_pin_write_logic@ret^0,c
  3293   00140C                     
  3294                           ;MCAL_Layer/GPIO/hal_gpio.c: 77:     if(pin_config == ((void*)0) || pin_config->pin > 8 
      +                          -1){
  3295   00140C  5036               	movf	gpio_pin_write_logic@pin_config^0,w,c
  3296   00140E  1037               	iorwf	(gpio_pin_write_logic@pin_config+1)^0,w,c
  3297   001410  B4D8               	btfsc	status,2,c
  3298   001412  EF0D  F00A         	goto	u701
  3299   001416  EF0F  F00A         	goto	u700
  3300   00141A                     u701:
  3301   00141A  EF20  F00A         	goto	l1746
  3302   00141E                     u700:
  3303   00141E  C036  FFD9         	movff	gpio_pin_write_logic@pin_config,fsr2l
  3304   001422  C037  FFDA         	movff	gpio_pin_write_logic@pin_config+1,fsr2h
  3305   001426  30DF               	rrcf	223,w,c
  3306   001428  32E8               	rrcf	wreg,f,c
  3307   00142A  32E8               	rrcf	wreg,f,c
  3308   00142C  0B07               	andlw	7
  3309   00142E  6E39               	movwf	??_gpio_pin_write_logic^0,c
  3310   001430  0E07               	movlw	7
  3311   001432  6439               	cpfsgt	??_gpio_pin_write_logic^0,c
  3312   001434  EF1E  F00A         	goto	u711
  3313   001438  EF20  F00A         	goto	u710
  3314   00143C                     u711:
  3315   00143C  EF83  F00A         	goto	l1754
  3316   001440                     u710:
  3317   001440                     l1746:
  3318                           
  3319                           ;MCAL_Layer/GPIO/hal_gpio.c: 78:         ret = (std_ReturnType)0x00;
  3320   001440  0E00               	movlw	0
  3321   001442  6E3F               	movwf	gpio_pin_write_logic@ret^0,c
  3322                           
  3323                           ;MCAL_Layer/GPIO/hal_gpio.c: 79:     }
  3324   001444  EF98  F00A         	goto	l1756
  3325   001448                     l1748:
  3326                           
  3327                           ;MCAL_Layer/GPIO/hal_gpio.c: 83:                 (*lat_register[pin_config->port] &= ~((
      +                          uint8)1 << pin_config->pin));
  3328   001448  C036  FFD9         	movff	gpio_pin_write_logic@pin_config,fsr2l
  3329   00144C  C037  FFDA         	movff	gpio_pin_write_logic@pin_config+1,fsr2h
  3330   001450  30DF               	rrcf	223,w,c
  3331   001452  32E8               	rrcf	wreg,f,c
  3332   001454  32E8               	rrcf	wreg,f,c
  3333   001456  0B07               	andlw	7
  3334   001458  6E39               	movwf	??_gpio_pin_write_logic^0,c
  3335   00145A  0E01               	movlw	1
  3336   00145C  6E3A               	movwf	(??_gpio_pin_write_logic+1)^0,c
  3337   00145E  2A39               	incf	??_gpio_pin_write_logic^0,f,c
  3338   001460  EF34  F00A         	goto	u724
  3339   001464                     u725:
  3340   001464  90D8               	bcf	status,0,c
  3341   001466  363A               	rlcf	(??_gpio_pin_write_logic+1)^0,f,c
  3342   001468                     u724:
  3343   001468  2E39               	decfsz	??_gpio_pin_write_logic^0,f,c
  3344   00146A  EF32  F00A         	goto	u725
  3345   00146E  503A               	movf	(??_gpio_pin_write_logic+1)^0,w,c
  3346   001470  0AFF               	xorlw	255
  3347   001472  6E3B               	movwf	(??_gpio_pin_write_logic+2)^0,c
  3348   001474  C036  FFD9         	movff	gpio_pin_write_logic@pin_config,fsr2l
  3349   001478  C037  FFDA         	movff	gpio_pin_write_logic@pin_config+1,fsr2h
  3350   00147C  50DF               	movf	223,w,c
  3351   00147E  0B07               	andlw	7
  3352   001480  6E3C               	movwf	(??_gpio_pin_write_logic+3)^0,c
  3353   001482  503C               	movf	(??_gpio_pin_write_logic+3)^0,w,c
  3354   001484  0D02               	mullw	2
  3355   001486  0E0B               	movlw	low _lat_register
  3356   001488  24F3               	addwf	243,w,c
  3357   00148A  6ED9               	movwf	fsr2l,c
  3358   00148C  0E00               	movlw	high _lat_register
  3359   00148E  20F4               	addwfc	prodh,w,c
  3360   001490  6EDA               	movwf	fsr2h,c
  3361   001492  CFDE F03D          	movff	postinc2,??_gpio_pin_write_logic+4
  3362   001496  CFDD F03E          	movff	postdec2,??_gpio_pin_write_logic+5
  3363   00149A  C03D  FFD9         	movff	??_gpio_pin_write_logic+4,fsr2l
  3364   00149E  C03E  FFDA         	movff	??_gpio_pin_write_logic+5,fsr2h
  3365   0014A2  503B               	movf	(??_gpio_pin_write_logic+2)^0,w,c
  3366   0014A4  16DF               	andwf	indf2,f,c
  3367                           
  3368                           ;MCAL_Layer/GPIO/hal_gpio.c: 84:                 break;
  3369   0014A6  EF98  F00A         	goto	l1756
  3370   0014AA                     l1750:
  3371                           
  3372                           ;MCAL_Layer/GPIO/hal_gpio.c: 86:                 (*lat_register[pin_config->port] |= ((u
      +                          int8)1 << pin_config->pin));
  3373   0014AA  C036  FFD9         	movff	gpio_pin_write_logic@pin_config,fsr2l
  3374   0014AE  C037  FFDA         	movff	gpio_pin_write_logic@pin_config+1,fsr2h
  3375   0014B2  30DF               	rrcf	223,w,c
  3376   0014B4  32E8               	rrcf	wreg,f,c
  3377   0014B6  32E8               	rrcf	wreg,f,c
  3378   0014B8  0B07               	andlw	7
  3379   0014BA  6E39               	movwf	??_gpio_pin_write_logic^0,c
  3380   0014BC  0E01               	movlw	1
  3381   0014BE  6E3A               	movwf	(??_gpio_pin_write_logic+1)^0,c
  3382   0014C0  2A39               	incf	??_gpio_pin_write_logic^0,f,c
  3383   0014C2  EF65  F00A         	goto	u734
  3384   0014C6                     u735:
  3385   0014C6  90D8               	bcf	status,0,c
  3386   0014C8  363A               	rlcf	(??_gpio_pin_write_logic+1)^0,f,c
  3387   0014CA                     u734:
  3388   0014CA  2E39               	decfsz	??_gpio_pin_write_logic^0,f,c
  3389   0014CC  EF63  F00A         	goto	u735
  3390   0014D0  C036  FFD9         	movff	gpio_pin_write_logic@pin_config,fsr2l
  3391   0014D4  C037  FFDA         	movff	gpio_pin_write_logic@pin_config+1,fsr2h
  3392   0014D8  50DF               	movf	223,w,c
  3393   0014DA  0B07               	andlw	7
  3394   0014DC  6E3B               	movwf	(??_gpio_pin_write_logic+2)^0,c
  3395   0014DE  503B               	movf	(??_gpio_pin_write_logic+2)^0,w,c
  3396   0014E0  0D02               	mullw	2
  3397   0014E2  0E0B               	movlw	low _lat_register
  3398   0014E4  24F3               	addwf	243,w,c
  3399   0014E6  6ED9               	movwf	fsr2l,c
  3400   0014E8  0E00               	movlw	high _lat_register
  3401   0014EA  20F4               	addwfc	prodh,w,c
  3402   0014EC  6EDA               	movwf	fsr2h,c
  3403   0014EE  CFDE F03C          	movff	postinc2,??_gpio_pin_write_logic+3
  3404   0014F2  CFDD F03D          	movff	postdec2,??_gpio_pin_write_logic+4
  3405   0014F6  C03C  FFD9         	movff	??_gpio_pin_write_logic+3,fsr2l
  3406   0014FA  C03D  FFDA         	movff	??_gpio_pin_write_logic+4,fsr2h
  3407   0014FE  503A               	movf	(??_gpio_pin_write_logic+1)^0,w,c
  3408   001500  12DF               	iorwf	indf2,f,c
  3409                           
  3410                           ;MCAL_Layer/GPIO/hal_gpio.c: 87:                 break;
  3411   001502  EF98  F00A         	goto	l1756
  3412   001506                     l1754:
  3413   001506  5038               	movf	gpio_pin_write_logic@logic^0,w,c
  3414   001508  6E39               	movwf	??_gpio_pin_write_logic^0,c
  3415   00150A  6A3A               	clrf	(??_gpio_pin_write_logic+1)^0,c
  3416                           
  3417                           ; Switch on 2 bytes has been partitioned into a top level switch of size 1, and 1 sub-sw
      +                          itches
  3418                           ; Switch size 1, requested type "simple"
  3419                           ; Number of cases is 1, Range of values is 0 to 0
  3420                           ; switch strategies available:
  3421                           ; Name         Instructions Cycles
  3422                           ; simple_byte            4     3 (average)
  3423                           ;	Chosen strategy is simple_byte
  3424   00150C  503A               	movf	(??_gpio_pin_write_logic+1)^0,w,c
  3425   00150E  0A00               	xorlw	0	; case 0
  3426   001510  B4D8               	btfsc	status,2,c
  3427   001512  EF8D  F00A         	goto	l2280
  3428   001516  EF20  F00A         	goto	l1746
  3429   00151A                     l2280:
  3430                           
  3431                           ; Switch size 1, requested type "simple"
  3432                           ; Number of cases is 2, Range of values is 0 to 1
  3433                           ; switch strategies available:
  3434                           ; Name         Instructions Cycles
  3435                           ; simple_byte            7     4 (average)
  3436                           ;	Chosen strategy is simple_byte
  3437   00151A  5039               	movf	??_gpio_pin_write_logic^0,w,c
  3438   00151C  0A00               	xorlw	0	; case 0
  3439   00151E  B4D8               	btfsc	status,2,c
  3440   001520  EF24  F00A         	goto	l1748
  3441   001524  0A01               	xorlw	1	; case 1
  3442   001526  B4D8               	btfsc	status,2,c
  3443   001528  EF55  F00A         	goto	l1750
  3444   00152C  EF20  F00A         	goto	l1746
  3445   001530                     l1756:
  3446                           
  3447                           ;MCAL_Layer/GPIO/hal_gpio.c: 91:     return ret;
  3448   001530  503F               	movf	gpio_pin_write_logic@ret^0,w,c
  3449   001532  0012               	return		;funcret
  3450   001534                     __end_of_gpio_pin_write_logic:
  3451                           	callstack 0
  3452                           
  3453 ;; *************** function _gpio_pin_direction_initialize *****************
  3454 ;; Defined at:
  3455 ;;		line 23 in file "MCAL_Layer/GPIO/hal_gpio.c"
  3456 ;; Parameters:    Size  Location     Type
  3457 ;;  pin_config      2    0[COMRAM] PTR const struct .
  3458 ;;		 -> motor.dc_motor(2), motor(2), keypad.keypad_columns_pins(3), keypad.keypad_rows_pins(4), 
  3459 ;;		 -> keypad(7), lcd.lcd_data(4), lcd(6), led_initialize@led_pin(1), 
  3460 ;; Auto vars:     Size  Location     Type
  3461 ;;  ret             1    8[COMRAM] unsigned char 
  3462 ;; Return value:  Size  Location     Type
  3463 ;;                  1    wreg      unsigned char 
  3464 ;; Registers used:
  3465 ;;		wreg, fsr2l, fsr2h, status,2, status,0, prodl, prodh
  3466 ;; Tracked objects:
  3467 ;;		On entry : 0/0
  3468 ;;		On exit  : 0/0
  3469 ;;		Unchanged: 0/0
  3470 ;; Data sizes:     COMRAM   BANK0   BANK1   BANK2   BANK3   BANK4   BANK5   BANK6   BANK7   BANK8   BANK9  BANK10  BANK1
      +1  BANK12  BANK13  BANK14  BANK15
  3471 ;;      Params:         2       0       0       0       0       0       0       0       0       0       0       0       
      +0       0       0       0       0
  3472 ;;      Locals:         1       0       0       0       0       0       0       0       0       0       0       0       
      +0       0       0       0       0
  3473 ;;      Temps:          6       0       0       0       0       0       0       0       0       0       0       0       
      +0       0       0       0       0
  3474 ;;      Totals:         9       0       0       0       0       0       0       0       0       0       0       0       
      +0       0       0       0       0
  3475 ;;Total ram usage:        9 bytes
  3476 ;; Hardware stack levels used: 1
  3477 ;; This function calls:
  3478 ;;		Nothing
  3479 ;; This function is called by:
  3480 ;;		_keypad_initialize
  3481 ;;		_led_initialize
  3482 ;;		_gpio_pin_initialize
  3483 ;; This function uses a non-reentrant model
  3484 ;;
  3485                           
  3486                           	psect	text22
  3487   0012C4                     __ptext22:
  3488                           	callstack 0
  3489   0012C4                     _gpio_pin_direction_initialize:
  3490                           	callstack 27
  3491   0012C4                     
  3492                           ;MCAL_Layer/GPIO/hal_gpio.c: 24:     std_ReturnType ret = (std_ReturnType)0x01;
  3493   0012C4  0E01               	movlw	1
  3494   0012C6  6E3E               	movwf	gpio_pin_direction_initialize@ret^0,c
  3495   0012C8                     
  3496                           ;MCAL_Layer/GPIO/hal_gpio.c: 26:     if(pin_config == ((void*)0) || pin_config->pin > 8 
      +                          -1){
  3497   0012C8  5036               	movf	gpio_pin_direction_initialize@pin_config^0,w,c
  3498   0012CA  1037               	iorwf	(gpio_pin_direction_initialize@pin_config+1)^0,w,c
  3499   0012CC  B4D8               	btfsc	status,2,c
  3500   0012CE  EF6B  F009         	goto	u741
  3501   0012D2  EF6D  F009         	goto	u740
  3502   0012D6                     u741:
  3503   0012D6  EF7E  F009         	goto	l1770
  3504   0012DA                     u740:
  3505   0012DA  C036  FFD9         	movff	gpio_pin_direction_initialize@pin_config,fsr2l
  3506   0012DE  C037  FFDA         	movff	gpio_pin_direction_initialize@pin_config+1,fsr2h
  3507   0012E2  30DF               	rrcf	223,w,c
  3508   0012E4  32E8               	rrcf	wreg,f,c
  3509   0012E6  32E8               	rrcf	wreg,f,c
  3510   0012E8  0B07               	andlw	7
  3511   0012EA  6E38               	movwf	??_gpio_pin_direction_initialize^0,c
  3512   0012EC  0E07               	movlw	7
  3513   0012EE  6438               	cpfsgt	??_gpio_pin_direction_initialize^0,c
  3514   0012F0  EF7C  F009         	goto	u751
  3515   0012F4  EF7E  F009         	goto	u750
  3516   0012F8                     u751:
  3517   0012F8  EFE1  F009         	goto	l1778
  3518   0012FC                     u750:
  3519   0012FC                     l1770:
  3520                           
  3521                           ;MCAL_Layer/GPIO/hal_gpio.c: 27:         ret = (std_ReturnType)0x00;
  3522   0012FC  0E00               	movlw	0
  3523   0012FE  6E3E               	movwf	gpio_pin_direction_initialize@ret^0,c
  3524                           
  3525                           ;MCAL_Layer/GPIO/hal_gpio.c: 28:     }
  3526   001300  EF02  F00A         	goto	l1780
  3527   001304                     l1772:
  3528                           
  3529                           ;MCAL_Layer/GPIO/hal_gpio.c: 32:                 (*tris_register[pin_config->port] &= ~(
      +                          (uint8)1 << pin_config->pin));
  3530   001304  C036  FFD9         	movff	gpio_pin_direction_initialize@pin_config,fsr2l
  3531   001308  C037  FFDA         	movff	gpio_pin_direction_initialize@pin_config+1,fsr2h
  3532   00130C  30DF               	rrcf	223,w,c
  3533   00130E  32E8               	rrcf	wreg,f,c
  3534   001310  32E8               	rrcf	wreg,f,c
  3535   001312  0B07               	andlw	7
  3536   001314  6E38               	movwf	??_gpio_pin_direction_initialize^0,c
  3537   001316  0E01               	movlw	1
  3538   001318  6E39               	movwf	(??_gpio_pin_direction_initialize+1)^0,c
  3539   00131A  2A38               	incf	??_gpio_pin_direction_initialize^0,f,c
  3540   00131C  EF92  F009         	goto	u764
  3541   001320                     u765:
  3542   001320  90D8               	bcf	status,0,c
  3543   001322  3639               	rlcf	(??_gpio_pin_direction_initialize+1)^0,f,c
  3544   001324                     u764:
  3545   001324  2E38               	decfsz	??_gpio_pin_direction_initialize^0,f,c
  3546   001326  EF90  F009         	goto	u765
  3547   00132A  5039               	movf	(??_gpio_pin_direction_initialize+1)^0,w,c
  3548   00132C  0AFF               	xorlw	255
  3549   00132E  6E3A               	movwf	(??_gpio_pin_direction_initialize+2)^0,c
  3550   001330  C036  FFD9         	movff	gpio_pin_direction_initialize@pin_config,fsr2l
  3551   001334  C037  FFDA         	movff	gpio_pin_direction_initialize@pin_config+1,fsr2h
  3552   001338  50DF               	movf	223,w,c
  3553   00133A  0B07               	andlw	7
  3554   00133C  6E3B               	movwf	(??_gpio_pin_direction_initialize+3)^0,c
  3555   00133E  503B               	movf	(??_gpio_pin_direction_initialize+3)^0,w,c
  3556   001340  0D02               	mullw	2
  3557   001342  0E15               	movlw	low _tris_register
  3558   001344  24F3               	addwf	243,w,c
  3559   001346  6ED9               	movwf	fsr2l,c
  3560   001348  0E00               	movlw	high _tris_register
  3561   00134A  20F4               	addwfc	prodh,w,c
  3562   00134C  6EDA               	movwf	fsr2h,c
  3563   00134E  CFDE F03C          	movff	postinc2,??_gpio_pin_direction_initialize+4
  3564   001352  CFDD F03D          	movff	postdec2,??_gpio_pin_direction_initialize+5
  3565   001356  C03C  FFD9         	movff	??_gpio_pin_direction_initialize+4,fsr2l
  3566   00135A  C03D  FFDA         	movff	??_gpio_pin_direction_initialize+5,fsr2h
  3567   00135E  503A               	movf	(??_gpio_pin_direction_initialize+2)^0,w,c
  3568   001360  16DF               	andwf	indf2,f,c
  3569                           
  3570                           ;MCAL_Layer/GPIO/hal_gpio.c: 33:                 break;
  3571   001362  EF02  F00A         	goto	l1780
  3572   001366                     l1774:
  3573                           
  3574                           ;MCAL_Layer/GPIO/hal_gpio.c: 35:                 (*tris_register[pin_config->port] |= ((
      +                          uint8)1 << pin_config->pin));
  3575   001366  C036  FFD9         	movff	gpio_pin_direction_initialize@pin_config,fsr2l
  3576   00136A  C037  FFDA         	movff	gpio_pin_direction_initialize@pin_config+1,fsr2h
  3577   00136E  30DF               	rrcf	223,w,c
  3578   001370  32E8               	rrcf	wreg,f,c
  3579   001372  32E8               	rrcf	wreg,f,c
  3580   001374  0B07               	andlw	7
  3581   001376  6E38               	movwf	??_gpio_pin_direction_initialize^0,c
  3582   001378  0E01               	movlw	1
  3583   00137A  6E39               	movwf	(??_gpio_pin_direction_initialize+1)^0,c
  3584   00137C  2A38               	incf	??_gpio_pin_direction_initialize^0,f,c
  3585   00137E  EFC3  F009         	goto	u774
  3586   001382                     u775:
  3587   001382  90D8               	bcf	status,0,c
  3588   001384  3639               	rlcf	(??_gpio_pin_direction_initialize+1)^0,f,c
  3589   001386                     u774:
  3590   001386  2E38               	decfsz	??_gpio_pin_direction_initialize^0,f,c
  3591   001388  EFC1  F009         	goto	u775
  3592   00138C  C036  FFD9         	movff	gpio_pin_direction_initialize@pin_config,fsr2l
  3593   001390  C037  FFDA         	movff	gpio_pin_direction_initialize@pin_config+1,fsr2h
  3594   001394  50DF               	movf	223,w,c
  3595   001396  0B07               	andlw	7
  3596   001398  6E3A               	movwf	(??_gpio_pin_direction_initialize+2)^0,c
  3597   00139A  503A               	movf	(??_gpio_pin_direction_initialize+2)^0,w,c
  3598   00139C  0D02               	mullw	2
  3599   00139E  0E15               	movlw	low _tris_register
  3600   0013A0  24F3               	addwf	243,w,c
  3601   0013A2  6ED9               	movwf	fsr2l,c
  3602   0013A4  0E00               	movlw	high _tris_register
  3603   0013A6  20F4               	addwfc	prodh,w,c
  3604   0013A8  6EDA               	movwf	fsr2h,c
  3605   0013AA  CFDE F03B          	movff	postinc2,??_gpio_pin_direction_initialize+3
  3606   0013AE  CFDD F03C          	movff	postdec2,??_gpio_pin_direction_initialize+4
  3607   0013B2  C03B  FFD9         	movff	??_gpio_pin_direction_initialize+3,fsr2l
  3608   0013B6  C03C  FFDA         	movff	??_gpio_pin_direction_initialize+4,fsr2h
  3609   0013BA  5039               	movf	(??_gpio_pin_direction_initialize+1)^0,w,c
  3610   0013BC  12DF               	iorwf	indf2,f,c
  3611                           
  3612                           ;MCAL_Layer/GPIO/hal_gpio.c: 36:                 break;
  3613   0013BE  EF02  F00A         	goto	l1780
  3614   0013C2                     l1778:
  3615   0013C2  C036  FFD9         	movff	gpio_pin_direction_initialize@pin_config,fsr2l
  3616   0013C6  C037  FFDA         	movff	gpio_pin_direction_initialize@pin_config+1,fsr2h
  3617   0013CA  BCDF               	btfsc	indf2,6,c
  3618   0013CC  EFEA  F009         	goto	u781
  3619   0013D0  EFED  F009         	goto	u780
  3620   0013D4                     u781:
  3621   0013D4  0E01               	movlw	1
  3622   0013D6  EFEE  F009         	goto	u790
  3623   0013DA                     u780:
  3624   0013DA  0E00               	movlw	0
  3625   0013DC                     u790:
  3626   0013DC  6E38               	movwf	??_gpio_pin_direction_initialize^0,c
  3627   0013DE  6A39               	clrf	(??_gpio_pin_direction_initialize+1)^0,c
  3628                           
  3629                           ; Switch on 2 bytes has been partitioned into a top level switch of size 1, and 1 sub-sw
      +                          itches
  3630                           ; Switch size 1, requested type "simple"
  3631                           ; Number of cases is 1, Range of values is 0 to 0
  3632                           ; switch strategies available:
  3633                           ; Name         Instructions Cycles
  3634                           ; simple_byte            4     3 (average)
  3635                           ;	Chosen strategy is simple_byte
  3636   0013E0  5039               	movf	(??_gpio_pin_direction_initialize+1)^0,w,c
  3637   0013E2  0A00               	xorlw	0	; case 0
  3638   0013E4  B4D8               	btfsc	status,2,c
  3639   0013E6  EFF7  F009         	goto	l2282
  3640   0013EA  EF7E  F009         	goto	l1770
  3641   0013EE                     l2282:
  3642                           
  3643                           ; Switch size 1, requested type "simple"
  3644                           ; Number of cases is 2, Range of values is 0 to 1
  3645                           ; switch strategies available:
  3646                           ; Name         Instructions Cycles
  3647                           ; simple_byte            7     4 (average)
  3648                           ;	Chosen strategy is simple_byte
  3649   0013EE  5038               	movf	??_gpio_pin_direction_initialize^0,w,c
  3650   0013F0  0A00               	xorlw	0	; case 0
  3651   0013F2  B4D8               	btfsc	status,2,c
  3652   0013F4  EF82  F009         	goto	l1772
  3653   0013F8  0A01               	xorlw	1	; case 1
  3654   0013FA  B4D8               	btfsc	status,2,c
  3655   0013FC  EFB3  F009         	goto	l1774
  3656   001400  EF7E  F009         	goto	l1770
  3657   001404                     l1780:
  3658                           
  3659                           ;MCAL_Layer/GPIO/hal_gpio.c: 40:     return ret;
  3660   001404  503E               	movf	gpio_pin_direction_initialize@ret^0,w,c
  3661   001406  0012               	return		;funcret
  3662   001408                     __end_of_gpio_pin_direction_initialize:
  3663                           	callstack 0
  3664                           
  3665 ;; *************** function ___wmul *****************
  3666 ;; Defined at:
  3667 ;;		line 15 in file "C:\Program Files\Microchip\xc8\v2.41\pic\sources\c99\common\Umul16.c"
  3668 ;; Parameters:    Size  Location     Type
  3669 ;;  multiplier      2    0[COMRAM] unsigned int 
  3670 ;;  multiplicand    2    2[COMRAM] unsigned int 
  3671 ;; Auto vars:     Size  Location     Type
  3672 ;;  product         2    4[COMRAM] unsigned int 
  3673 ;; Return value:  Size  Location     Type
  3674 ;;                  2    0[COMRAM] unsigned int 
  3675 ;; Registers used:
  3676 ;;		wreg, status,2, status,0, prodl, prodh
  3677 ;; Tracked objects:
  3678 ;;		On entry : 0/0
  3679 ;;		On exit  : 0/0
  3680 ;;		Unchanged: 0/0
  3681 ;; Data sizes:     COMRAM   BANK0   BANK1   BANK2   BANK3   BANK4   BANK5   BANK6   BANK7   BANK8   BANK9  BANK10  BANK1
      +1  BANK12  BANK13  BANK14  BANK15
  3682 ;;      Params:         4       0       0       0       0       0       0       0       0       0       0       0       
      +0       0       0       0       0
  3683 ;;      Locals:         2       0       0       0       0       0       0       0       0       0       0       0       
      +0       0       0       0       0
  3684 ;;      Temps:          0       0       0       0       0       0       0       0       0       0       0       0       
      +0       0       0       0       0
  3685 ;;      Totals:         6       0       0       0       0       0       0       0       0       0       0       0       
      +0       0       0       0       0
  3686 ;;Total ram usage:        6 bytes
  3687 ;; Hardware stack levels used: 1
  3688 ;; This function calls:
  3689 ;;		Nothing
  3690 ;; This function is called by:
  3691 ;;		_main
  3692 ;; This function uses a non-reentrant model
  3693 ;;
  3694                           
  3695                           	psect	text23
  3696   001F44                     __ptext23:
  3697                           	callstack 0
  3698   001F44                     ___wmul:
  3699                           	callstack 30
  3700   001F44  5036               	movf	___wmul@multiplier^0,w,c
  3701   001F46  0238               	mulwf	___wmul@multiplicand^0,c
  3702   001F48  CFF3 F03A          	movff	prodl,___wmul@product
  3703   001F4C  CFF4 F03B          	movff	prodh,___wmul@product+1
  3704   001F50  5036               	movf	___wmul@multiplier^0,w,c
  3705   001F52  0239               	mulwf	(___wmul@multiplicand+1)^0,c
  3706   001F54  50F3               	movf	243,w,c
  3707   001F56  263B               	addwf	(___wmul@product+1)^0,f,c
  3708   001F58  5037               	movf	(___wmul@multiplier+1)^0,w,c
  3709   001F5A  0238               	mulwf	___wmul@multiplicand^0,c
  3710   001F5C  50F3               	movf	243,w,c
  3711   001F5E  263B               	addwf	(___wmul@product+1)^0,f,c
  3712   001F60  C03A  F036         	movff	___wmul@product,?___wmul
  3713   001F64  C03B  F037         	movff	___wmul@product+1,?___wmul+1
  3714   001F68  0012               	return		;funcret
  3715   001F6A                     __end_of___wmul:
  3716                           	callstack 0
  3717                           
  3718                           	psect	rparam
  3719   000000                     
  3720                           	psect	config
  3721                           
  3722                           ; Padding undefined space
  3723   300000                     	org	3145728
  3724   300000  FF                 	db	255
  3725                           
  3726                           ;Config register CONFIG1H @ 0x300001
  3727                           ;	Oscillator Selection bits
  3728                           ;	OSC = HS, HS oscillator
  3729                           ;	Fail-Safe Clock Monitor Enable bit
  3730                           ;	FCMEN = OFF, Fail-Safe Clock Monitor disabled
  3731                           ;	Internal/External Oscillator Switchover bit
  3732                           ;	IESO = OFF, Oscillator Switchover mode disabled
  3733   300001                     	org	3145729
  3734   300001  02                 	db	2
  3735                           
  3736                           ;Config register CONFIG2L @ 0x300002
  3737                           ;	Power-up Timer Enable bit
  3738                           ;	PWRT = OFF, PWRT disabled
  3739                           ;	Brown-out Reset Enable bits
  3740                           ;	BOREN = OFF, Brown-out Reset disabled in hardware and software
  3741                           ;	Brown Out Reset Voltage bits
  3742                           ;	BORV = 1, 
  3743   300002                     	org	3145730
  3744   300002  09                 	db	9
  3745                           
  3746                           ;Config register CONFIG2H @ 0x300003
  3747                           ;	Watchdog Timer Enable bit
  3748                           ;	WDT = OFF, WDT disabled (control is placed on the SWDTEN bit)
  3749                           ;	Watchdog Timer Postscale Select bits
  3750                           ;	WDTPS = 32768, 1:32768
  3751   300003                     	org	3145731
  3752   300003  1E                 	db	30
  3753                           
  3754                           ; Padding undefined space
  3755   300004                     	org	3145732
  3756   300004  FF                 	db	255
  3757                           
  3758                           ;Config register CONFIG3H @ 0x300005
  3759                           ;	CCP2 MUX bit
  3760                           ;	CCP2MX = PORTC, CCP2 input/output is multiplexed with RC1
  3761                           ;	PORTB A/D Enable bit
  3762                           ;	PBADEN = OFF, PORTB<4:0> pins are configured as digital I/O on Reset
  3763                           ;	Low-Power Timer1 Oscillator Enable bit
  3764                           ;	LPT1OSC = OFF, Timer1 configured for higher power operation
  3765                           ;	MCLR Pin Enable bit
  3766                           ;	MCLRE = ON, MCLR pin enabled; RE3 input pin disabled
  3767   300005                     	org	3145733
  3768   300005  81                 	db	129
  3769                           
  3770                           ;Config register CONFIG4L @ 0x300006
  3771                           ;	Stack Full/Underflow Reset Enable bit
  3772                           ;	STVREN = ON, Stack full/underflow will cause Reset
  3773                           ;	Single-Supply ICSP Enable bit
  3774                           ;	LVP = OFF, Single-Supply ICSP disabled
  3775                           ;	Extended Instruction Set Enable bit
  3776                           ;	XINST = OFF, Instruction set extension and Indexed Addressing mode disabled (Legacy mo
      +                          de)
  3777                           ;	Background Debugger Enable bit
  3778                           ;	DEBUG = 0x1, unprogrammed default
  3779   300006                     	org	3145734
  3780   300006  81                 	db	129
  3781                           
  3782                           ; Padding undefined space
  3783   300007                     	org	3145735
  3784   300007  FF                 	db	255
  3785                           
  3786                           ;Config register CONFIG5L @ 0x300008
  3787                           ;	Code Protection bit
  3788                           ;	CP0 = OFF, Block 0 (000800-003FFFh) not code-protected
  3789                           ;	Code Protection bit
  3790                           ;	CP1 = OFF, Block 1 (004000-007FFFh) not code-protected
  3791                           ;	Code Protection bit
  3792                           ;	CP2 = OFF, Block 2 (008000-00BFFFh) not code-protected
  3793                           ;	Code Protection bit
  3794                           ;	CP3 = OFF, Block 3 (00C000-00FFFFh) not code-protected
  3795   300008                     	org	3145736
  3796   300008  0F                 	db	15
  3797                           
  3798                           ;Config register CONFIG5H @ 0x300009
  3799                           ;	Boot Block Code Protection bit
  3800                           ;	CPB = OFF, Boot block (000000-0007FFh) not code-protected
  3801                           ;	Data EEPROM Code Protection bit
  3802                           ;	CPD = OFF, Data EEPROM not code-protected
  3803   300009                     	org	3145737
  3804   300009  C0                 	db	192
  3805                           
  3806                           ;Config register CONFIG6L @ 0x30000A
  3807                           ;	Write Protection bit
  3808                           ;	WRT0 = OFF, Block 0 (000800-003FFFh) not write-protected
  3809                           ;	Write Protection bit
  3810                           ;	WRT1 = OFF, Block 1 (004000-007FFFh) not write-protected
  3811                           ;	Write Protection bit
  3812                           ;	WRT2 = OFF, Block 2 (008000-00BFFFh) not write-protected
  3813                           ;	Write Protection bit
  3814                           ;	WRT3 = OFF, Block 3 (00C000-00FFFFh) not write-protected
  3815   30000A                     	org	3145738
  3816   30000A  0F                 	db	15
  3817                           
  3818                           ;Config register CONFIG6H @ 0x30000B
  3819                           ;	Configuration Register Write Protection bit
  3820                           ;	WRTC = OFF, Configuration registers (300000-3000FFh) not write-protected
  3821                           ;	Boot Block Write Protection bit
  3822                           ;	WRTB = OFF, Boot Block (000000-0007FFh) not write-protected
  3823                           ;	Data EEPROM Write Protection bit
  3824                           ;	WRTD = OFF, Data EEPROM not write-protected
  3825   30000B                     	org	3145739
  3826   30000B  E0                 	db	224
  3827                           
  3828                           ;Config register CONFIG7L @ 0x30000C
  3829                           ;	Table Read Protection bit
  3830                           ;	EBTR0 = OFF, Block 0 (000800-003FFFh) not protected from table reads executed in other
      +                           blocks
  3831                           ;	Table Read Protection bit
  3832                           ;	EBTR1 = OFF, Block 1 (004000-007FFFh) not protected from table reads executed in other
      +                           blocks
  3833                           ;	Table Read Protection bit
  3834                           ;	EBTR2 = OFF, Block 2 (008000-00BFFFh) not protected from table reads executed in other
      +                           blocks
  3835                           ;	Table Read Protection bit
  3836                           ;	EBTR3 = OFF, Block 3 (00C000-00FFFFh) not protected from table reads executed in other
      +                           blocks
  3837   30000C                     	org	3145740
  3838   30000C  0F                 	db	15
  3839                           
  3840                           ;Config register CONFIG7H @ 0x30000D
  3841                           ;	Boot Block Table Read Protection bit
  3842                           ;	EBTRB = OFF, Boot Block (000000-0007FFh) not protected from table reads executed in ot
      +                          her blocks
  3843   30000D                     	org	3145741
  3844   30000D  40                 	db	64
  3845                           tosu	equ	0xFFF
  3846                           tosh	equ	0xFFE
  3847                           tosl	equ	0xFFD
  3848                           stkptr	equ	0xFFC
  3849                           pclatu	equ	0xFFB
  3850                           pclath	equ	0xFFA
  3851                           pcl	equ	0xFF9
  3852                           tblptru	equ	0xFF8
  3853                           tblptrh	equ	0xFF7
  3854                           tblptrl	equ	0xFF6
  3855                           tablat	equ	0xFF5
  3856                           prodh	equ	0xFF4
  3857                           prodl	equ	0xFF3
  3858                           indf0	equ	0xFEF
  3859                           postinc0	equ	0xFEE
  3860                           postdec0	equ	0xFED
  3861                           preinc0	equ	0xFEC
  3862                           plusw0	equ	0xFEB
  3863                           fsr0h	equ	0xFEA
  3864                           fsr0l	equ	0xFE9
  3865                           wreg	equ	0xFE8
  3866                           indf1	equ	0xFE7
  3867                           postinc1	equ	0xFE6
  3868                           postdec1	equ	0xFE5
  3869                           preinc1	equ	0xFE4
  3870                           plusw1	equ	0xFE3
  3871                           fsr1h	equ	0xFE2
  3872                           fsr1l	equ	0xFE1
  3873                           bsr	equ	0xFE0
  3874                           indf2	equ	0xFDF
  3875                           postinc2	equ	0xFDE
  3876                           postdec2	equ	0xFDD
  3877                           preinc2	equ	0xFDC
  3878                           plusw2	equ	0xFDB
  3879                           fsr2h	equ	0xFDA
  3880                           fsr2l	equ	0xFD9
  3881                           status	equ	0xFD8

Data Sizes:
    Strings     89
    Constant    12
    Data        53
    BSS         9
    Persistent  0
    Stack       0

Auto Spaces:
    Space          Size  Autos    Used
    COMRAM          127     34      96
    BANK0           128      0       0
    BANK1           256      0       0
    BANK2           256      0       0
    BANK3           256      0       0
    BANK4           256      0       0
    BANK5           256      0       0
    BANK6           256      0       0
    BANK7           256      0       0
    BANK8           256      0       0
    BANK9           256      0       0
    BANK10          256      0       0
    BANK11          256      0       0
    BANK12          256      0       0
    BANK13          256      0       0
    BANK14          256      0       0
    BANK15          128      0       0

Pointer List with Targets:

    vfprintf$2	PTR PTR void  size(2) Largest target is 2
		 -> sprintf@ap(COMRAM[2]), 

    vfprintf$1	PTR const unsigned char  size(2) Largest target is 3
		 -> STR_3(CODE[3]), STR_2(CODE[3]), STR_1(CODE[3]), 

    vfprintf$0	PTR struct _IO_FILE size(2) Largest target is 12
		 -> sprintf@f(COMRAM[12]), 

    S1045$source	PTR const unsigned char  size(2) Largest target is 0

    f...source	PTR const unsigned char  size(2) Largest target is 0

    S1045$buffer	PTR unsigned char  size(2) Largest target is 0

    f...buffer	PTR unsigned char  size(2) Largest target is 0

    gpio_pin_initialize@pin_config	PTR const struct . size(2) Largest target is 7
		 -> motor.dc_motor(COMRAM[2]), motor(COMRAM[2]), keypad.keypad_rows_pins(COMRAM[4]), keypad(COMRAM[7]), 
		 -> lcd.lcd_data(COMRAM[4]), lcd(COMRAM[6]), 

    gpio_pin_read_logic@logic	PTR enum E2968 size(2) Largest target is 1
		 -> keypad_get_value@col_logic(COMRAM[1]), 

    gpio_pin_read_logic@pin_config	PTR const struct . size(2) Largest target is 7
		 -> keypad.keypad_columns_pins(COMRAM[3]), keypad(COMRAM[7]), 

    gpio_pin_write_logic@pin_config	PTR const struct . size(2) Largest target is 7
		 -> motor.dc_motor(COMRAM[2]), motor(COMRAM[2]), keypad.keypad_rows_pins(COMRAM[4]), keypad(COMRAM[7]), 
		 -> lcd.lcd_data(COMRAM[4]), lcd(COMRAM[6]), led_turn_off@led_pin(COMRAM[1]), led_turn_on@led_pin(COMRAM[1]), 

    gpio_pin_direction_initialize@pin_config	PTR const struct . size(2) Largest target is 7
		 -> motor.dc_motor(COMRAM[2]), motor(COMRAM[2]), keypad.keypad_columns_pins(COMRAM[3]), keypad.keypad_rows_pins(COMRAM[4]), 
		 -> keypad(COMRAM[7]), lcd.lcd_data(COMRAM[4]), lcd(COMRAM[6]), led_initialize@led_pin(COMRAM[1]), 

    port_register	PTR volatile unsigned char [5] size(2) Largest target is 1
		 -> PORTE(BITBIGSFRll[1]), PORTD(BITBIGSFRll[1]), PORTC(BITBIGSFRll[1]), PORTB(BITBIGSFRll[1]), 
		 -> PORTA(BITBIGSFRll[1]), 

    lat_register	PTR volatile unsigned char [5] size(2) Largest target is 1
		 -> LATE(BITBIGSFRlh[1]), LATD(BITBIGSFRlh[1]), LATC(BITBIGSFRlh[1]), LATB(BITBIGSFRlh[1]), 
		 -> LATA(BITBIGSFRll[1]), 

    tris_register	PTR volatile unsigned char [5] size(2) Largest target is 1
		 -> TRISE(BITBIGSFRh[1]), TRISD(BITBIGSFRh[1]), TRISC(BITBIGSFRh[1]), TRISB(BITBIGSFRh[1]), 
		 -> TRISA(BITBIGSFRll[1]), 

    led_turn_on@led	PTR const struct . size(2) Largest target is 2
		 -> led_red(COMRAM[2]), led_green(COMRAM[2]), 

    led_initialize@led	PTR const struct . size(2) Largest target is 2
		 -> led_red(COMRAM[2]), led_green(COMRAM[2]), 

    lcd_send_4bits@lcd	PTR const struct . size(2) Largest target is 6
		 -> lcd(COMRAM[6]), 

    sp__memset	PTR void  size(2) Largest target is 0

    lcd_4bit_set_cursor@lcd	PTR const struct . size(2) Largest target is 6
		 -> lcd(COMRAM[6]), 

    lcd_4bit_send_enable@lcd	PTR const struct . size(2) Largest target is 6
		 -> lcd(COMRAM[6]), 

    lcd_4bit_send_string_pos@str	PTR unsigned char  size(2) Largest target is 20
		 -> STR_5(CODE[20]), 

    lcd_4bit_send_string_pos@lcd	PTR const struct . size(2) Largest target is 6
		 -> lcd(COMRAM[6]), 

    lcd_4bit_send_string@str	PTR unsigned char  size(2) Largest target is 19
		 -> STR_9(CODE[16]), STR_8(CODE[19]), STR_7(CODE[16]), STR_6(CODE[17]), 
		 -> STR_4(CODE[14]), 

    lcd_4bit_send_string@lcd	PTR const struct . size(2) Largest target is 6
		 -> lcd(COMRAM[6]), 

    lcd_4bit_send_data_pos@lcd	PTR const struct . size(2) Largest target is 6
		 -> lcd(COMRAM[6]), 

    lcd_4bit_send_char_data@lcd	PTR const struct . size(2) Largest target is 6
		 -> lcd(COMRAM[6]), 

    lcd_4bit_send_command@lcd	PTR const struct . size(2) Largest target is 6
		 -> lcd(COMRAM[6]), 

    lcd_4bit_initialize@lcd	PTR const struct . size(2) Largest target is 6
		 -> lcd(COMRAM[6]), 

    keypad_get_value@value	PTR unsigned char  size(2) Largest target is 1
		 -> keypad_read_value@secondVal(COMRAM[1]), keypad_read_value@firstVal(COMRAM[1]), 

    keypad_get_value@keypad	PTR const struct . size(2) Largest target is 7
		 -> keypad(COMRAM[7]), 

    keypad_initialize@keypad	PTR const struct . size(2) Largest target is 7
		 -> keypad(COMRAM[7]), 

    dc_motor_move_right@motor	PTR const struct . size(2) Largest target is 2
		 -> motor(COMRAM[2]), 

    dc_motor_initialize@motor	PTR const struct . size(2) Largest target is 2
		 -> motor(COMRAM[2]), 


Critical Paths under _main in COMRAM

    _main->_lcd_4bit_send_string_pos
    _led_turn_on->_gpio_pin_write_logic
    _lcd_4bit_send_string_pos->_lcd_4bit_set_cursor
    _lcd_4bit_send_string->_lcd_4bit_send_char_data
    _lcd_4bit_send_data_pos->_lcd_4bit_set_cursor
    _lcd_4bit_set_cursor->_lcd_4bit_send_command
    _lcd_4bit_send_char_data->_lcd_send_4bits
    _keypad_read_value->_keypad_get_value
    _keypad_get_value->_gpio_pin_read_logic
    _keypad_get_value->_gpio_pin_write_logic
    _dc_motor_move_right->_gpio_pin_write_logic
    _ecu_layer_initialize->_lcd_4bit_initialize
    _led_initialize->_gpio_pin_direction_initialize
    _lcd_4bit_initialize->_lcd_4bit_send_command
    _lcd_4bit_send_command->_lcd_send_4bits
    _lcd_send_4bits->_gpio_pin_write_logic
    _lcd_4bit_send_enable->_gpio_pin_write_logic
    _keypad_initialize->_gpio_pin_initialize
    _dc_motor_initialize->_gpio_pin_initialize
    _gpio_pin_initialize->_gpio_pin_write_logic

Critical Paths under _main in BANK0

    None.

Critical Paths under _main in BANK1

    None.

Critical Paths under _main in BANK2

    None.

Critical Paths under _main in BANK3

    None.

Critical Paths under _main in BANK4

    None.

Critical Paths under _main in BANK5

    None.

Critical Paths under _main in BANK6

    None.

Critical Paths under _main in BANK7

    None.

Critical Paths under _main in BANK8

    None.

Critical Paths under _main in BANK9

    None.

Critical Paths under _main in BANK10

    None.

Critical Paths under _main in BANK11

    None.

Critical Paths under _main in BANK12

    None.

Critical Paths under _main in BANK13

    None.

Critical Paths under _main in BANK14

    None.

Critical Paths under _main in BANK15

    None.

Call Graph Tables:

 ---------------------------------------------------------------------------------
 (Depth) Function   	        Calls       Base Space   Used Autos Params    Refs
 ---------------------------------------------------------------------------------
 (0) _main                                                 2     2      0  116215
                                             32 COMRAM     2     2      0
                             ___wmul
                      _app_intialize
                _dc_motor_move_right
                  _keypad_read_value
              _lcd_4bit_send_command
             _lcd_4bit_send_data_pos
               _lcd_4bit_send_string
           _lcd_4bit_send_string_pos
                        _led_turn_on
 ---------------------------------------------------------------------------------
 (1) _led_turn_on                                          5     3      2    3363
                                             10 COMRAM     5     3      2
               _gpio_pin_write_logic
 ---------------------------------------------------------------------------------
 (1) _lcd_4bit_send_string_pos                             7     1      6   25654
                                             25 COMRAM     7     1      6
            _lcd_4bit_send_char_data
                _lcd_4bit_set_cursor
 ---------------------------------------------------------------------------------
 (1) _lcd_4bit_send_string                                 5     1      4   11966
                                             18 COMRAM     5     1      4
            _lcd_4bit_send_char_data
 ---------------------------------------------------------------------------------
 (1) _lcd_4bit_send_data_pos                               6     1      5   25935
                                             25 COMRAM     6     1      5
            _lcd_4bit_send_char_data
                _lcd_4bit_set_cursor
 ---------------------------------------------------------------------------------
 (2) _lcd_4bit_set_cursor                                  7     3      4   14077
                                             18 COMRAM     7     3      4
              _lcd_4bit_send_command
 ---------------------------------------------------------------------------------
 (2) _lcd_4bit_send_char_data                              4     1      3   11092
                                             14 COMRAM     4     1      3
               _gpio_pin_write_logic
               _lcd_4bit_send_enable
                     _lcd_send_4bits
 ---------------------------------------------------------------------------------
 (1) _keypad_read_value                                    4     4      0    4268
                                             21 COMRAM     4     4      0
                   _keypad_get_value
 ---------------------------------------------------------------------------------
 (2) _keypad_get_value                                    11     7      4    4132
                                             10 COMRAM    11     7      4
                _gpio_pin_read_logic
               _gpio_pin_write_logic
 ---------------------------------------------------------------------------------
 (3) _gpio_pin_read_logic                                 10     6      4     308
                                              0 COMRAM    10     6      4
 ---------------------------------------------------------------------------------
 (1) _dc_motor_move_right                                  3     1      2    3234
                                             10 COMRAM     3     1      2
               _gpio_pin_write_logic
 ---------------------------------------------------------------------------------
 (1) _app_intialize                                        0     0      0   27612
               _ecu_layer_initialize
 ---------------------------------------------------------------------------------
 (2) _ecu_layer_initialize                                 0     0      0   27612
                _dc_motor_initialize
                  _keypad_initialize
                _lcd_4bit_initialize
                     _led_initialize
 ---------------------------------------------------------------------------------
 (3) _led_initialize                                       5     3      2     704
                                              9 COMRAM     5     3      2
      _gpio_pin_direction_initialize
 ---------------------------------------------------------------------------------
 (3) _lcd_4bit_initialize                                  6     4      2   17902
                                             18 COMRAM     6     4      2
                _gpio_pin_initialize
              _lcd_4bit_send_command
 ---------------------------------------------------------------------------------
 (3) _lcd_4bit_send_command                                4     1      3   13372
                                             14 COMRAM     4     1      3
               _gpio_pin_write_logic
               _lcd_4bit_send_enable
                     _lcd_send_4bits
 ---------------------------------------------------------------------------------
 (4) _lcd_send_4bits                                       4     1      3    3901
                                             10 COMRAM     4     1      3
               _gpio_pin_write_logic
 ---------------------------------------------------------------------------------
 (4) _lcd_4bit_send_enable                                 3     1      2    3463
                                             10 COMRAM     3     1      2
               _gpio_pin_write_logic
 ---------------------------------------------------------------------------------
 (3) _keypad_initialize                                    7     5      2    4775
                                             14 COMRAM     7     5      2
      _gpio_pin_direction_initialize
                _gpio_pin_initialize
 ---------------------------------------------------------------------------------
 (3) _dc_motor_initialize                                  3     1      2    4231
                                             14 COMRAM     3     1      2
                _gpio_pin_initialize
 ---------------------------------------------------------------------------------
 (4) _gpio_pin_initialize                                  4     2      2    4064
                                             10 COMRAM     4     2      2
      _gpio_pin_direction_initialize
               _gpio_pin_write_logic
 ---------------------------------------------------------------------------------
 (2) _gpio_pin_write_logic                                10     7      3    3067
                                              0 COMRAM    10     7      3
 ---------------------------------------------------------------------------------
 (4) _gpio_pin_direction_initialize                        9     7      2     407
                                              0 COMRAM     9     7      2
 ---------------------------------------------------------------------------------
 (1) ___wmul                                               6     2      4     811
                                              0 COMRAM     6     2      4
 ---------------------------------------------------------------------------------
 Estimated maximum stack depth 4
 ---------------------------------------------------------------------------------

 Call Graph Graphs:

 _main (ROOT)
   ___wmul
   _app_intialize
     _ecu_layer_initialize
       _dc_motor_initialize
         _gpio_pin_initialize
           _gpio_pin_direction_initialize
           _gpio_pin_write_logic
       _keypad_initialize
         _gpio_pin_direction_initialize
         _gpio_pin_initialize
       _lcd_4bit_initialize
         _gpio_pin_initialize
         _lcd_4bit_send_command
           _gpio_pin_write_logic
           _lcd_4bit_send_enable
             _gpio_pin_write_logic
           _lcd_send_4bits
             _gpio_pin_write_logic
       _led_initialize
         _gpio_pin_direction_initialize
   _dc_motor_move_right
     _gpio_pin_write_logic
   _keypad_read_value
     _keypad_get_value
       _gpio_pin_read_logic
       _gpio_pin_write_logic
   _lcd_4bit_send_command
   _lcd_4bit_send_data_pos
     _lcd_4bit_send_char_data
       _gpio_pin_write_logic
       _lcd_4bit_send_enable
       _lcd_send_4bits
     _lcd_4bit_set_cursor
       _lcd_4bit_send_command
   _lcd_4bit_send_string
     _lcd_4bit_send_char_data
   _lcd_4bit_send_string_pos
     _lcd_4bit_send_char_data
     _lcd_4bit_set_cursor
   _led_turn_on
     _gpio_pin_write_logic

 Address spaces:
Name               Size   Autos  Total    Cost      Usage
BIGRAM             F7F      0       0      40        0.0%
EEDATA             400      0       0       0        0.0%
BITBANK14          100      0       0      32        0.0%
BANK14             100      0       0      33        0.0%
BITBANK13          100      0       0      30        0.0%
BANK13             100      0       0      31        0.0%
BITBANK12          100      0       0      28        0.0%
BANK12             100      0       0      29        0.0%
BITBANK11          100      0       0      26        0.0%
BANK11             100      0       0      27        0.0%
BITBANK10          100      0       0      24        0.0%
BANK10             100      0       0      25        0.0%
BITBANK9           100      0       0      22        0.0%
BANK9              100      0       0      23        0.0%
BITBANK8           100      0       0      20        0.0%
BANK8              100      0       0      21        0.0%
BITBANK7           100      0       0      18        0.0%
BANK7              100      0       0      19        0.0%
BITBANK6           100      0       0      16        0.0%
BANK6              100      0       0      17        0.0%
BITBANK5           100      0       0      14        0.0%
BANK5              100      0       0      15        0.0%
BITBANK4           100      0       0      12        0.0%
BANK4              100      0       0      13        0.0%
BITBANK3           100      0       0      10        0.0%
BANK3              100      0       0      11        0.0%
BITBANK2           100      0       0       8        0.0%
BANK2              100      0       0       9        0.0%
BITBANK1           100      0       0       6        0.0%
BANK1              100      0       0       7        0.0%
BITBANK15           80      0       0      34        0.0%
BANK15              80      0       0      35        0.0%
BITBANK0            80      0       0       4        0.0%
BANK0               80      0       0       5        0.0%
BITCOMRAM           7F      0       0       0        0.0%
COMRAM              7F     22      60       1       75.6%
BITBIGSFRh          69      0       0      36        0.0%
BITBIGSFRlh          4      0       0      37        0.0%
BITBIGSFRll          4      0       0      38        0.0%
BIGSFR               0      0       0     200        0.0%
BITSFR               0      0       0     200        0.0%
SFR                  0      0       0     200        0.0%
STACK                0      0       0       2        0.0%
NULL                 0      0       0       0        0.0%
ABS                  0      0      60      39        0.0%
DATA                 0      0      60       3        0.0%
CODE                 0      0       0       0        0.0%


Microchip Technology PIC18 Macro Assembler V2.41 build 20230208172133 
Symbol Table                                                                                   Sat Aug 05 20:08:57 2023

                                      l9 1ED6                          ?_lcd_send_4bits 0040  
                                     l14 1E98                                       l43 1AE2  
                                     l57 1758                                       l82 1656  
                                     l92 1BC8                                       l87 1C3A  
                                     l97 1E52                      ___wmul@multiplicand 0038  
                                    l105 1D74                                      l113 1B56  
                                    l210 1E0C                                      l118 1DC4  
                                    l214 1CAA                                      l129 1816  
                                    l162 19E2                                      l139 1A6A  
                                    l165 18EE                                      l158 197A  
                                    l263 1406                                      l169 195A  
                                    l282 1532                                      l296 1D16  
                                    l385 1F70                                      l289 18CE  
                                    l388 1F68                                      u700 141E  
                                    u701 141A                                      u710 1440  
                                    u711 143C                          ??_app_intialize 004E  
                                    u800 19F6                                      u801 19F2  
                                    u810 1D88                                      u811 1D84  
                                    u740 12DA                                      u724 1468  
                                    u820 1CC2                                      u900 1840  
                                    u741 12D6                                      u725 1464  
                                    u821 1CBE                                      u901 183C  
                                    u750 12FC                                      u734 14CA  
                                    u830 1CE4                                      u910 1862  
                                    u751 12F8                                      u735 14C6  
                                    u831 1CE0                                      u911 185E  
                                    u840 1BDC                                      u841 1BD8  
                                    u850 1EAC                                      u930 1546  
                                    u851 1EA8                                      u931 1542  
                                    u780 13DA                                      u764 1324  
                                    u860 1A7E                                      u940 15A0  
                                    u924 18B8                                      u781 13D4  
                                    u765 1320                                      u861 1A7A  
                                    u941 159C                                      u925 18B4  
                                    u790 13DC                                      u774 1386  
                                    u870 1AAC                                      u950 1972  
                                    u775 1382                                      u871 1AA8  
                                    u951 196E                                      u880 1AE0  
                                    u960 166E                                      u881 1ADC  
                                    u961 166A                                      u890 182E  
                                    u970 1680                                      u891 182A  
                                    u971 167C                                      u980 16B6  
                                    u981 16B2                                      u990 1704  
                                    u991 1700            gpio_pin_initialize@pin_config 0040  
                   keypad_initialize@ret 0048                                      _lcd 002A  
                                    _ret 0022                      led_initialize@F3048 0060  
                                    prod 0FF3                                      wreg 0FE8  
                           ?_led_turn_on 0040                     _lcd_4bit_send_enable 1D76  
                                   l2010 1734                                     l2002 16CE  
                                   l2012 1744                                     l2004 16F4  
                                   l2020 1B58                                     l2014 1746  
                                   l2006 1704                                     l2022 1B58  
                                   l2110 1B18                                     l2102 1AE4  
                                   l2008 1732                                     l2016 1756  
                                   l2024 1B6A                                     l2040 177A  
                                   l2032 175A                                     l2112 1B34  
                                   l2104 1AE4                                     l2120 18D0  
                                   l2026 1B72                                     l2042 1792  
                                   l2050 1814                                     l2034 175E  
                                   l2114 1B38                                     l2106 1AF6  
                                   l2130 1948                                     l2122 18D4  
                                   l2210 1098                                     l2060 1E54  
                                   l2140 1C6A                                     l2028 1BC6  
                                   l2044 17AA                                     l2036 1760  
                                   l2116 1B54                                     l2108 1AFE  
                                   l2132 1958                                     l2124 18E6  
                                   l2220 10FC                                     l2212 10B6  
                                   l2204 1068                                     l2070 1E96  
                                   l2062 1E54                                     l2150 1CA8  
                                   l2142 1C7A                                     l2046 17C2  
                                   l2038 1772                                     l2126 18F2  
                                   l2230 1166                                     l2222 1114  
                                   l2214 10E0                                     l2206 106C  
                                   l2160 1F44                                     l2064 1E66  
                                   l2136 1C3C                                     l2048 17DA  
                                   l2080 1E28                                     l2128 1928  
                                   l2240 11C4                                     l2232 117C  
                                   l2224 1126                                     l2216 10E6  
                                   l2208 1082                                     l2162 1F60  
                                   l2058 1DC6                                     l2066 1E6E  
                                   l2146 1C80                                     l2138 1C52  
                                   l2082 1E50                                     l2074 1E0E  
                                   l2090 1D2E                                     l2250 1222  
                                   l2242 11DC                                     l2234 118A  
                                   l2226 113C                                     l2218 10F8  
                                   l2068 1E92                                     l2148 1C96  
                                   l2076 1E0E                                     l2092 1D36  
                                   l2260 1288                                     l2252 1232  
                                   l2244 11EE                                     l2228 1154  
                                   l2236 119C                                     l2158 1F6A  
                                   l2078 1E20                                     l2094 1D52  
                                   l2086 1D18                                     l2262 12A0  
                                   l2254 1244                                     l2246 1204  
                                   l2238 11AE                                     l2280 151A  
                                   l1800 1D76                                     l2096 1D56  
                                   l2088 1D1C                                     l2264 12BA  
                                   l2256 1246                                     l2248 1212  
                                   l2282 13EE                                     l1810 1DAC  
                                   l1802 1D76                                     l2098 1D72  
                                   l2258 126E                                     l1740 1408  
                                   l1820 1CC2                                     l1812 1DC2  
                                   l1804 1D88                                     l1900 186A  
                                   l1750 14AA                                     l1742 140C  
                                   l1822 1CE4                                     l1806 1D90  
                                   l1830 1BCA                                     l1910 1546  
                                   l1902 18CC                                     l2278 17EE  
                                   l1744 141E                                     l1824 1CEC  
                                   l1816 1CAC                                     l1808 1DA4  
                                   l1832 1BCA                                     l1920 1572  
                                   l1912 154E                                     l1770 12FC  
                                   l1754 1506                                     l1746 1440  
                                   l1826 1D14                                     l1818 1CB0  
                                   l1850 1ED0                                     l1842 1E9A  
                                   l1834 1BDC                                     l1930 15BE  
                                   l1922 158E                                     l1914 156E  
                                   l1906 1534                                     l1772 1304  
                                   l1780 1404                                     l1764 12C4  
                                   l1748 1448                                     l1756 1530  
                                   l1852 1ED4                                     l1844 1E9A  
                                   l1860 1A7E                                     l1836 1BE4  
                                   l1940 1612                                     l1932 15DC  
                                   l1924 1590                                     l1908 1534  
                                   l1774 1366                                     l1766 12C8  
                                   l1846 1EAC                                     l1870 1A9A  
                                   l1862 1A86                                     l1790 19E4  
                                   l1838 1C38                                     l1942 1622  
                                   l1934 15E2                                     l1926 15A0  
                                   l1768 12DA                                     l1848 1EB4  
                                   l1880 1AB0                                     l1872 1A9C  
                                   l1856 1A6C                                     l1792 19F6  
                                   l1944 1632                                     l1936 15F2  
                                   l1928 15AE                                     l1960 19B4  
                                   l1952 195C                                     l1778 13C2  
                                   l1882 1ACE                                     l1874 1AAC  
                                   l1858 1A6C                                     l1794 19FE  
                                   l1946 1642                                     l1938 1602  
                                   l1962 19D4                                     l1954 1960  
                                   l1890 1818                                     l1970 165C  
                                   l1884 1AD0                                     l1868 1A8A  
                                   l1796 1A68                                     l1788 19E4  
                                   l1948 1654                                     l1964 19E0  
                                   l1956 1972                                     l1892 181C  
                                   l1972 166E                                     l1886 1AE0  
                                   l1958 197E                                     l1894 182E  
                                   l1990 16A4                                     l1982 168C  
                                   l1974 1680                                     l1896 1840  
                                   l1992 16A6                                     l1976 1688  
                                   l1968 1658                                     l1898 1862  
                                   l1994 16B6                                     l1996 16CA  
                                   l1988 1690                                     STR_1 1063  
                                   STR_4 1055                                     STR_5 100D  
                                   STR_6 1034                                     STR_7 1045  
                                   STR_8 1021                                     STR_9 1045  
                                   u1000 1744                                     u1001 1740  
                                   u1010 1756                                     u1011 1752  
                                   u1020 1B6A                                     u1100 18E6  
                                   u1021 1B66                                     u1101 18E2  
                                   u1110 1C7A                                     u1030 1772  
                                   u1111 1C76                                     u1031 176E  
                                   u1040 1E66                                     u1120 1CA8  
                                   u1200 1244                                     u1041 1E62  
                                   u1121 1CA4                                     u1201 1240  
                                   u1050 1E20                                     u1051 1E1C  
                                   u1060 1D2E                                     u1061 1D2A  
                                   u1070 1D72                                     u1071 1D6E  
                                   u1080 1AF6                                     u1160 10F8  
                                   u1081 1AF2                                     u1161 10F4  
                                   u1217 108C                                     u1090 1B54  
                                   u1170 1114                                     u1307 1DA6  
                                   u1091 1B50                                     u1171 1110  
                                   u1227 10C0                                     u1180 1222  
                                   u1181 121E                                     u1237 1146  
                                   _LATA 0F89                                     u1190 1232  
                                   _LATB 0F8A                                     u1191 122E  
                                   u1247 11CE                                     _LATC 0F8B  
                                   _LATD 0F8C                                     u1257 1292  
                                   _LATE 0F8D                                     u1267 1C5C  
                                   u1277 15A6                                     u1287 15C4  
                                   u1297 15DE                     _lcd_4bit_send_string 1D18  
                                   _main 1068                                     fsr2h 0FDA  
                                   indf2 0FDF                                     fsr1l 0FE1  
                                   fsr2l 0FD9                   __end_of_led_initialize 19E4  
                                   prodh 0FF4                                     prodl 0FF3  
                                   start 0000                             ___param_bank 0000  
                  _lcd_4bit_send_command 1BCA                   dc_motor_initialize@ret 0046  
                   _gpio_pin_write_logic 1408           lcd_4bit_send_string_pos@column 0054  
                 keypad_get_value@keypad 0040                                    ?_main 0036  
                                  _PORTA 0F80                                    _PORTB 0F81  
                                  _PORTC 0F82                                    _PORTD 0F83  
                                  _PORTE 0F84                                    _TRISA 0F92  
                                  _TRISB 0F93                                    _TRISC 0F94  
                                  _TRISD 0F95                                    _TRISE 0F96  
              lcd_4bit_set_cursor@column 004B                    ?_lcd_4bit_send_enable 0040  
               __end_of_keypad_get_value 175A                                    _count 005B  
                                  _index 0021                                    _motor 0030  
                  ?_lcd_4bit_send_string 0048                                    tablat 0FF5  
                lcd_4bit_send_enable@lcd 0040                  lcd_4bit_send_enable@ret 0042  
                                  status 0FD8                          ?_led_initialize 003F  
         ?_gpio_pin_direction_initialize 0036                   _lcd_4bit_send_data_pos 1E0E  
                        __initialization 1ED8                      keypad_get_value@ret 0046  
                           __end_of_main 12C4            gpio_pin_read_logic@pin_config 0036  
                  ?_gpio_pin_write_logic 0036                 gpio_pin_read_logic@logic 0038  
            __end_of_dc_motor_initialize 1ED8                                   ??_main 0056  
                          __activetblptr 0002             lcd_4bit_send_data_pos@column 0052  
                       led_turn_on@F3053 005F                keypad_get_value@col_logic 0047  
                          _tris_register 0015         __end_of_lcd_4bit_send_string_pos 1B58  
            __end_of_dc_motor_move_right 1E9A                   ?_lcd_4bit_send_command 0044  
                keypad_initialize@keypad 0044              keypad_get_value@row_counter 0049  
                                 ___wmul 1F44                    led_initialize@led_pin 0043  
                                 _keypad 0023                                   clear_0 1EFE  
                                 isa$std 0001                             __pdataCOMRAM 0001  
                 ??_lcd_4bit_send_enable 0042                             __mediumconst 0000  
                                 tblptrh 0FF7                                   tblptrl 0FF6  
                                 tblptru 0FF8                   ??_lcd_4bit_send_string 004C  
                             __accesstop 0080                  __end_of__initialization 1F04  
                          ___rparam_used 0001                         ??_lcd_send_4bits 0043  
                      led_initialize@led 003F                        led_initialize@ret 0042  
                _lcd_4bit_send_char_data 1B58                   ??_gpio_pin_write_logic 0039  
                         __pcstackCOMRAM 0036                 lcd_4bit_send_command@lcd 0044  
               lcd_4bit_send_command@ret 0047                 dc_motor_initialize@motor 0044  
           keypad_initialize@row_counter 0049                  lcd_4bit_send_string@lcd 0048  
                lcd_4bit_send_string@ret 004C                  lcd_4bit_send_string@str 004A  
                                ?___wmul 0036                        led_turn_off@F3058 005E  
                        led_toggle@F3063 005D                ?_lcd_4bit_send_string_pos 004F  
                  __end_of_app_intialize 1F72                        ?_keypad_get_value 0040  
               dc_motor_move_right@motor 0040                         ??_led_initialize 0041  
                     ??_keypad_get_value 0044                               _btn_values 1001  
              ??_lcd_4bit_send_char_data 0047                  ?_lcd_4bit_send_data_pos 004F  
                             _enterValue 005A                                  __Hparam 0000  
                                __Lparam 0000                      _gpio_pin_initialize 1CAC  
                    _gpio_pin_read_logic 1818                             __psmallconst 1000  
                                __pcinit 1ED8                                  __ramtop 1000  
                                _clicked 005C                                  __ptext0 1068  
                                __ptext1 18D0                                  __ptext2 1AE4  
                                __ptext3 1D18                                  __ptext4 1E0E  
                                __ptext5 175A                                  __ptext6 1B58  
                                __ptext7 1C3C                                  __ptext8 1658  
                                __ptext9 1818                                  _led_red 0032  
        ??_gpio_pin_direction_initialize 0038                     ?_gpio_pin_initialize 0040  
                   ?_gpio_pin_read_logic 0036                     end_of_initialization 1F04  
                      lcd_send_4bits@lcd 0040                        lcd_send_4bits@ret 0043  
         __end_of_lcd_4bit_send_data_pos 1E54                            __Lmediumconst 0000  
                ??_lcd_4bit_send_command 0047                                  postdec1 0FE5  
                                postdec2 0FDD                                  postinc0 0FEE  
                                postinc2 0FDE                      _lcd_4bit_initialize 1534  
        __end_of_lcd_4bit_send_char_data 1BCA               lcd_4bit_send_char_data@lcd 0044  
             lcd_4bit_send_char_data@ret 0047                    ??_gpio_pin_initialize 0042  
                  ??_gpio_pin_read_logic 003A                     ?_lcd_4bit_initialize 0048  
                    _lcd_4bit_set_cursor 175A              lcd_4bit_send_string_pos@lcd 004F  
             lcd_4bit_send_data_pos@data 0053              lcd_4bit_send_string_pos@ret 0055  
            lcd_4bit_send_string_pos@row 0053              lcd_4bit_send_string_pos@str 0051  
                  keypad_get_value@value 0042               keypad_read_value@secondVal 004E  
                         __end_of___wmul 1F6A                            __pidataCOMRAM 1F0E  
                    start_initialization 1ED8                            ??_led_turn_on 0042  
                   ?_lcd_4bit_set_cursor 0048    __end_of_gpio_pin_direction_initialize 1408  
          _gpio_pin_direction_initialize 12C4                             _lat_register 000B  
                  ??_lcd_4bit_initialize 004A                          _enteredPassword 0058  
                               ??___wmul 003A             __end_of_ecu_layer_initialize 1E0E  
           lcd_4bit_send_command@command 0046                              __pbssCOMRAM 0058  
                  ??_lcd_4bit_set_cursor 004C                      __end_of_led_turn_on 195C  
         gpio_pin_write_logic@pin_config 0036                gpio_pin_write_logic@logic 0038  
                              _led_green 0034                              __smallconst 1000  
                         ___wmul@product 003A               lcd_send_4bits@data_command 0042  
                     led_turn_on@led_pin 0044            __end_of_lcd_4bit_send_command 1C3C  
                    _dc_motor_initialize 1E9A         gpio_pin_direction_initialize@ret 003E  
               _lcd_4bit_send_string_pos 1AE4                        ___wmul@multiplier 0036  
gpio_pin_direction_initialize@pin_config 0036                   gpio_pin_initialize@ret 0043  
                            _led_turn_on 18D0                     ?_dc_motor_initialize 0044  
                gpio_pin_write_logic@ret 003F                 ?_lcd_4bit_send_char_data 0044  
                              copy_data0 1EEC                        _keypad_initialize 1A6C  
                      _keypad_read_value 1C3C                      _dc_motor_move_right 1E54  
                     ?_keypad_initialize 0044                   gpio_pin_read_logic@ret 003F  
                   _ecu_layer_initialize 1DC6                       ?_keypad_read_value 0036  
                         led_turn_on@led 0040                           led_turn_on@ret 0043  
                               __Hrparam 0000                                 __Lrparam 0000  
                    ??_keypad_initialize 0046                      ??_keypad_read_value 004B  
                 lcd_4bit_set_cursor@lcd 0048                   lcd_4bit_set_cursor@ret 004E  
                 lcd_4bit_set_cursor@row 004A                     ?_dc_motor_move_right 0040  
            __end_of_gpio_pin_initialize 1D18                       __end_of_btn_values 100D  
            __end_of_gpio_pin_read_logic 18D0                    ??_dc_motor_initialize 0046  
                          _app_intialize 1F6A                __end_of_keypad_initialize 1AE4  
                               __ptext10 1E54                                 __ptext11 1F6A  
                               __ptext20 1CAC                                 __ptext12 1DC6  
                               __ptext21 1408                                 __ptext13 195C  
                               __ptext22 12C4                                 __ptext14 1534  
                               __ptext23 1F44                                 __ptext15 1BCA  
                               __ptext16 19E4                                 __ptext17 1D76  
                               __ptext18 1A6C                                 __ptext19 1E9A  
              __end_of_keypad_read_value 1CAC                   dc_motor_move_right@ret 0042  
                  ?_ecu_layer_initialize 0036                                 _password 001F  
           __end_of_lcd_4bit_send_enable 1DC6                         _keypad_get_value 1658  
                               isa$xinst 0000             __end_of_lcd_4bit_send_string 1D76  
                  ??_dc_motor_move_right 0042                           _lcd_send_4bits 19E4  
            __end_of_lcd_4bit_initialize 1658                           ?_app_intialize 0036  
               ??_lcd_4bit_send_data_pos 0054              keypad_get_value@col_counter 004A  
           __end_of_gpio_pin_write_logic 1534                   __end_of_lcd_send_4bits 1A6C  
            __end_of_lcd_4bit_set_cursor 1818                keypad_read_value@firstVal 004D  
              lcd_4bit_send_data_pos@lcd 004F                lcd_4bit_send_data_pos@ret 0054  
              lcd_4bit_send_data_pos@row 0051                   ??_ecu_layer_initialize 004E  
                          _port_register 0001              lcd_4bit_send_char_data@data 0046  
           keypad_get_value@row_counter2 0048               ??_lcd_4bit_send_string_pos 0055  
                         _led_initialize 195C                   lcd_4bit_initialize@lcd 0048  
                 lcd_4bit_initialize@pin 004C                   lcd_4bit_initialize@ret 004D  
           keypad_initialize@col_counter 004A  
